(dp0
I2
(lp1
(dp2
S'pattern'
p3
S'2-1'
p4
sS'oe'
p5
F1.0660535117056855
sa(dp6
g3
S'2'
p7
sg5
F0.9642781764457578
sasI3
(lp8
(dp9
g3
S'3-1'
p10
sg5
F1.0970328425821063
sa(dp11
g3
S'3'
p12
sg5
F0.6493680297397769
sa(dp13
g3
S'3-2'
p14
sg5
F0.0
sa(dp15
g3
S'3-2-1'
p16
sg5
F0.0
sasI4
(lp17
(dp18
g3
S'4-3-1'
p19
sg5
F1.7333682556312204
sa(dp20
g3
S'4-2-1'
p21
sg5
F1.2656339644291452
sa(dp22
g3
S'4-2'
p23
sg5
F1.077954403163987
sa(dp24
g3
S'4-1'
p25
sg5
F0.6355683603981143
sa(dp26
g3
S'4'
p27
sg5
F0.0
sa(dp28
g3
S'4-3-2'
p29
sg5
F0.0
sa(dp30
g3
S'4-3-2-1'
p31
sg5
F0.0
sa(dp32
g3
S'4-3'
p33
sg5
F0.0
sasI5
(lp34
(dp35
g3
S'5-4-2'
p36
sg5
F1.5898617511520738
sa(dp37
g3
S'5-3-1'
p38
sg5
F1.0686181493470255
sa(dp39
g3
S'5-3'
p40
sg5
F1.0565536953858718
sa(dp41
g3
S'5-2'
p42
sg5
F0.7949308755760368
sa(dp43
g3
S'5-4-3'
p44
sg5
F0.0
sa(dp45
g3
S'5-4-3-2'
p46
sg5
F0.0
sa(dp47
g3
S'5-4-1'
p48
sg5
F0.0
sa(dp49
g3
S'5-4-3-1'
p50
sg5
F0.0
sa(dp51
g3
S'5-3-2-1'
p52
sg5
F0.0
sa(dp53
g3
S'5-2-1'
p54
sg5
F0.0
sa(dp55
g3
S'5'
p56
sg5
F0.0
sa(dp57
g3
S'5-4'
p58
sg5
F0.0
sa(dp59
g3
S'5-3-2'
p60
sg5
F0.0
sa(dp61
g3
S'5-4-3-2-1'
p62
sg5
F0.0
sa(dp63
g3
S'5-1'
p64
sg5
F0.0
sasI6
(lp65
(dp66
g3
S'6-4-3-1'
p67
sg5
F1.9047619047619047
sa(dp68
g3
S'6-2'
p69
sg5
F1.2698412698412698
sa(dp70
g3
S'6-4-2'
p71
sg5
F1.2049770792403405
sa(dp72
g3
S'6-3-1'
p73
sg5
F0.8547008547008547
sa(dp74
g3
S'6-4-1'
p75
sg5
F0.8333333333333333
sa(dp76
g3
S'6-4-2-1'
p77
sg5
F0.7843137254901961
sa(dp78
g3
S'6-4'
p79
sg5
F0.0
sa(dp80
g3
S'6-3-2-1'
p81
sg5
F0.0
sa(dp82
g3
S'6-5-2'
p83
sg5
F0.0
sa(dp84
g3
S'6-5-1'
p85
sg5
F0.0
sa(dp86
g3
S'6-5-4-3-1'
p87
sg5
F0.0
sa(dp88
g3
S'6-5-4-1'
p89
sg5
F0.0
sa(dp90
g3
S'6-4-3-2'
p91
sg5
F0.0
sa(dp92
g3
S'6-1'
p93
sg5
F0.0
sa(dp94
g3
S'6-5-3'
p95
sg5
F0.0
sa(dp96
g3
S'6-3'
p97
sg5
F0.0
sa(dp98
g3
S'6-4-3'
p99
sg5
F0.0
sa(dp100
g3
S'6-5-4-3-2'
p101
sg5
F0.0
sa(dp102
g3
S'6-5-3-1'
p103
sg5
F0.0
sa(dp104
g3
S'6-3-2'
p105
sg5
F0.0
sa(dp106
g3
S'6-5-4-2'
p107
sg5
F0.0
sasI7
(lp108
(dp109
g3
S'7-6-4-1'
p110
sg5
F3.951754385964912
sa(dp111
g3
S'7-4-3-1'
p112
sg5
F3.951754385964912
sa(dp113
g3
S'7-3-1'
p114
sg5
F2.107602339181286
sa(dp115
g3
S'7-5-3'
p116
sg5
F1.3811957077158916
sa(dp117
g3
S'7-5-4-2'
p118
sg5
F1.215924426450742
sa(dp119
g3
S'7-6-4-2'
p120
sg5
F1.1290726817042605
sa(dp121
g3
S'7-5-3-1'
p122
sg5
F1.0709361479579707
sa(dp123
g3
S'7-4-2'
p124
sg5
F0.8843086737823579
sa(dp125
g3
S'7-4-1'
p126
sg5
F0.8106162843004948
sa(dp127
g3
S'7-5-2'
p128
sg5
F0.6641604010025063
sa(dp129
g3
S'7-2'
p130
sg5
F0.0
sa(dp131
g3
S'7-5-1'
p132
sg5
F0.0
sa(dp133
g3
S'7-5'
p134
sg5
F0.0
sa(dp135
g3
S'7-6-4'
p136
sg5
F0.0
sa(dp137
g3
S'7-5-3-2-1'
p138
sg5
F0.0
sa(dp139
g3
S'7-4'
p140
sg5
F0.0
sa(dp141
g3
S'7-5-3-2'
p142
sg5
F0.0
sa(dp143
g3
S'7-5-4-1'
p144
sg5
F0.0
sa(dp145
g3
S'7-4-3-2-1'
p146
sg5
F0.0
sa(dp147
g3
S'7-6-2'
p148
sg5
F0.0
sa(dp149
g3
S'7-6-5-4-2'
p150
sg5
F0.0
sa(dp151
g3
S'7-5-2-1'
p152
sg5
F0.0
sa(dp153
g3
S'7-6-3'
p154
sg5
F0.0
sa(dp155
g3
S'7-6-3-1'
p156
sg5
F0.0
sa(dp157
g3
S'7-4-2-1'
p158
sg5
F0.0
sa(dp159
g3
S'7-6-5-4-3-1'
p160
sg5
F0.0
sa(dp161
g3
S'7-6-5-3-1'
p162
sg5
F0.0
sa(dp163
g3
S'7-5-4-3'
p164
sg5
F0.0
sa(dp165
g3
S'7-4-3'
p166
sg5
F0.0
sa(dp167
g3
S'7-6-5-3'
p168
sg5
F0.0
sa(dp169
g3
S'7-3'
p170
sg5
F0.0
sa(dp171
g3
S'7-6-5-2'
p172
sg5
F0.0
sasI8
(lp173
(dp174
g3
S'8-5-4-2'
p175
sg5
F4.5683060109289615
sa(dp176
g3
S'8-7-4-2'
p177
sg5
F3.426229508196722
sa(dp178
g3
S'8-6-4-3-1'
p179
sg5
F2.740983606557377
sa(dp180
g3
S'8-5-2'
p181
sg5
F1.6612021857923498
sa(dp182
g3
S'8-7-5-3-1'
p183
sg5
F1.3704918032786886
sa(dp184
g3
S'8-6-4-2'
p185
sg5
F1.2808334610081202
sa(dp186
g3
S'8-6-4-2-1'
p187
sg5
F1.0542244640605296
sa(dp188
g3
S'8-4-2'
p189
sg5
F0.9789227166276346
sa(dp190
g3
S'8-6-3-1'
p191
sg5
F0.9136612021857923
sa(dp192
g3
S'8-6-4-1'
p193
sg5
F0.8255974718546315
sa(dp194
g3
S'8-5-3-1'
p195
sg5
F0.7831381733021078
sa(dp196
g3
S'8-6-2'
p197
sg5
F0.6852459016393443
sa(dp198
g3
S'8-6-5-3'
p199
sg5
F0.0
sa(dp200
g3
S'8-7-3-1'
p201
sg5
F0.0
sa(dp202
g3
S'8-7-6-4-2'
p203
sg5
F0.0
sa(dp204
g3
S'8-7-5-3'
p205
sg5
F0.0
sa(dp206
g3
S'8-5-1'
p207
sg5
F0.0
sa(dp208
g3
S'8-6-1'
p209
sg5
F0.0
sa(dp210
g3
S'8-6-5-2'
p211
sg5
F0.0
sa(dp212
g3
S'8-7-5-2'
p213
sg5
F0.0
sa(dp214
g3
S'8-6-4-3-2'
p215
sg5
F0.0
sa(dp216
g3
S'8-6-4-3'
p217
sg5
F0.0
sa(dp218
g3
S'8-5'
p219
sg5
F0.0
sa(dp220
g3
S'8-5-4-3-2-1'
p221
sg5
F0.0
sa(dp222
g3
S'8-7-5-1'
p223
sg5
F0.0
sa(dp224
g3
S'8-6-3-2-1'
p225
sg5
F0.0
sa(dp226
g3
S'8-5-2-1'
p227
sg5
F0.0
sa(dp228
g3
S'8-6-4'
p229
sg5
F0.0
sa(dp230
g3
S'8-7-6-5-4-2'
p231
sg5
F0.0
sa(dp232
g3
S'8-5-3'
p233
sg5
F0.0
sa(dp234
g3
S'8-3-1'
p235
sg5
F0.0
sa(dp236
g3
S'8-5-3-2'
p237
sg5
F0.0
sa(dp238
g3
S'8-7-6-5-3'
p239
sg5
F0.0
sa(dp240
g3
S'8-6-3'
p241
sg5
F0.0
sa(dp242
g3
S'8-5-4-1'
p243
sg5
F0.0
sa(dp244
g3
S'8-6-5-3-1'
p245
sg5
F0.0
sa(dp246
g3
S'8-6-3-2'
p247
sg5
F0.0
sa(dp248
g3
S'8-4-1'
p249
sg5
F0.0
sa(dp250
g3
S'8-7-6-4-1'
p251
sg5
F0.0
sa(dp252
g3
S'8-6-5-4-1'
p253
sg5
F0.0
sa(dp254
g3
S'8-7-4-1'
p255
sg5
F0.0
sa(dp256
g3
S'8-7-6-5-3-1'
p257
sg5
F0.0
sa(dp258
g3
S'8-7-6-3'
p259
sg5
F0.0
sasI9
(lp260
(dp261
g3
S'9-7-4-3-1'
p262
sg5
F7.6568627450980395
sa(dp263
g3
S'9-7-6-4-1'
p264
sg5
F7.6568627450980395
sa(dp265
g3
S'9-6-3-1'
p266
sg5
F2.6632566069906223
sa(dp267
g3
S'9-7-3-1'
p268
sg5
F2.187675070028011
sa(dp269
g3
S'9-7-6-4-2'
p270
sg5
F1.9142156862745099
sa(dp271
g3
S'9-7-5-4-2'
p272
sg5
F1.7015250544662308
sa(dp273
g3
S'9-7-5-3'
p274
sg5
F1.458450046685341
sa(dp275
g3
S'9-7-4-2'
p276
sg5
F1.1343500363108205
sa(dp277
g3
S'9-7-5-2'
p278
sg5
F1.0347111817700052
sa(dp279
g3
S'9-7-5-3-1'
p280
sg5
F0.981649069884364
sa(dp281
g3
S'9-7-4-1'
p282
sg5
F0.696078431372549
sa(dp283
g3
S'9-6-4-2'
p284
sg5
F0.6516478931998332
sa(dp285
g3
S'9-8-5-3-1'
p286
sg5
F0.0
sa(dp287
g3
S'9-7-6-4'
p288
sg5
F0.0
sa(dp289
g3
S'9-6-3'
p290
sg5
F0.0
sa(dp291
g3
S'9-7-4-3-2-1'
p292
sg5
F0.0
sa(dp293
g3
S'9-7-5-3-2'
p294
sg5
F0.0
sa(dp295
g3
S'9-7-5-4-3'
p296
sg5
F0.0
sa(dp297
g3
S'9-8-6-4-1'
p298
sg5
F0.0
sa(dp299
g3
S'9-8-6-4-2-1'
p300
sg5
F0.0
sa(dp301
g3
S'9-5-2'
p302
sg5
F0.0
sa(dp303
g3
S'9-8-7-6-4-1'
p304
sg5
F0.0
sa(dp305
g3
S'9-7-5-2-1'
p306
sg5
F0.0
sa(dp307
g3
S'9-6-1'
p308
sg5
F0.0
sa(dp309
g3
S'9-6-5-3'
p310
sg5
F0.0
sa(dp311
g3
S'9-7-5-4-1'
p312
sg5
F0.0
sa(dp313
g3
S'9-6-5-4-3-2'
p314
sg5
F0.0
sa(dp315
g3
S'9-7-5'
p316
sg5
F0.0
sa(dp317
g3
S'9-8-6-3-1'
p318
sg5
F0.0
sa(dp319
g3
S'9-8-7-5-3-1'
p320
sg5
F0.0
sa(dp321
g3
S'9-8-4-2'
p322
sg5
F0.0
sa(dp323
g3
S'9-8-5-3'
p324
sg5
F0.0
sa(dp325
g3
S'9-5-3'
p326
sg5
F0.0
sa(dp327
g3
S'9-6-4-3-1'
p328
sg5
F0.0
sa(dp329
g3
S'9-7-4-2-1'
p330
sg5
F0.0
sa(dp331
g3
S'9-6-5-2'
p332
sg5
F0.0
sa(dp333
g3
S'9-8-7-4-1'
p334
sg5
F0.0
sa(dp335
g3
S'9-7-5-3-2-1'
p336
sg5
F0.0
sa(dp337
g3
S'9-8-6-4'
p338
sg5
F0.0
sa(dp339
g3
S'9-8-7-6-4-2'
p340
sg5
F0.0
sa(dp341
g3
S'9-4-2'
p342
sg5
F0.0
sa(dp343
g3
S'9-8-5-2'
p344
sg5
F0.0
sa(dp345
g3
S'9-6-4'
p346
sg5
F0.0
sa(dp347
g3
S'9-6-4-2-1'
p348
sg5
F0.0
sa(dp349
g3
S'9-6-4-1'
p350
sg5
F0.0
sa(dp351
g3
S'9-7-3'
p352
sg5
F0.0
sa(dp353
g3
S'9-8-7-5-2'
p354
sg5
F0.0
sa(dp355
g3
S'9-7-5-1'
p356
sg5
F0.0
sa(dp357
g3
S'9-8-6-4-2'
p358
sg5
F0.0
sa(dp359
g3
S'9-8-7-6-5-3'
p360
sg5
F0.0
sa(dp361
g3
S'9-7-6-3-1'
p362
sg5
F0.0
sa(dp363
g3
S'9-5-3-1'
p364
sg5
F0.0
sa(dp365
g3
S'9-6-5-3-1'
p366
sg5
F0.0
sa(dp367
g3
S'9-6-3-2'
p368
sg5
F0.0
sa(dp369
g3
S'9-7-2'
p370
sg5
F0.0
sa(dp371
g3
S'9-7-6-5-2'
p372
sg5
F0.0
sas.