(dp0
I2
(lp1
(dp2
S'pattern'
p3
S'2'
p4
sS'oe'
p5
F1.002079002079002
sa(dp6
g3
S'2-1'
p7
sg5
F0.0
sasI3
(lp8
(dp9
g3
S'3-1'
p10
sg5
F1.0575048732943471
sa(dp11
g3
S'3'
p12
sg5
F0.8037037037037037
sa(dp13
g3
S'3-2'
p14
sg5
F0.0
sa(dp15
g3
g4
sg5
F0.0
sasI4
(lp16
(dp17
g3
S'4-2'
p18
sg5
F1.0266211604095563
sa(dp19
g3
S'4-1'
p20
sg5
F0.81234567901234567
sa(dp21
g3
S'4-2-1'
p22
sg5
F0.0
sa(dp23
g3
S'4'
p24
sg5
F0.0
sasI5
(lp25
(dp26
g3
S'5-3-1'
p27
sg5
F1.0903119868637108
sa(dp28
g3
S'5-3'
p29
sg5
F1.0641025641025641
sa(dp30
g3
S'5-2'
p31
sg5
F0.73777777777777775
sa(dp32
g3
S'4-2'
p33
sg5
F0.0
sa(dp34
g3
S'5-3-2'
p35
sg5
F0.0
sasI6
(lp36
(dp37
g3
S'6-4-2'
p38
sg5
F1.2262156448202961
sa(dp39
g3
S'6-4-1'
p40
sg5
F0.84139264990328821
sa(dp41
g3
S'6-3-1'
p42
sg5
F0.52727272727272723
sa(dp43
g3
S'6-4'
p44
sg5
F0.0
sa(dp45
g3
S'6-4-2-1'
p46
sg5
F0.0
sa(dp47
g3
S'6-3'
p48
sg5
F0.0
sasI7
(lp49
(dp50
g3
S'7-4-2'
p51
sg5
F2.1228070175438596
sa(dp52
g3
S'7-4-1'
p53
sg5
F1.7925925925925925
sa(dp54
g3
S'7-5-3-1'
p55
sg5
F0.83284169124877094
sa(dp56
g3
S'7-5-3'
p57
sg5
F0.63020833333333326
sa(dp58
g3
S'7-5-2'
p59
sg5
F0.4689922480620155
sa(dp60
g3
S'7-5-3-2'
p61
sg5
F0.0
sasI8
(lp62
(dp63
g3
S'8-6-4-2'
p64
sg5
F1.3051546391752578
sa(dp65
g3
S'8-6-4-1'
p66
sg5
F1.1722222222222223
sa(dp67
g3
S'8-5-3'
p68
sg5
F1.1722222222222223
sa(dp69
g3
S'8-5-2'
p70
sg5
F0.75357142857142856
sa(dp71
g3
S'8-6-3-1'
p72
sg5
F0.72758620689655173
sa(dp73
g3
S'8-5-3-1'
p74
sg5
F0.42200000000000004
sa(dp75
g3
S'8-6-3'
p76
sg5
F0.0
sa(dp77
g3
S'8-6-4'
p78
sg5
F0.0
sasI9
(lp79
(dp80
g3
S'9-7-4-2'
p81
sg5
F2.3200757575757573
sa(dp82
g3
S'9-7-5-3'
p83
sg5
F1.4583333333333333
sa(dp84
g3
S'9-6-4-2'
p85
sg5
F1.1513157894736843
sa(dp86
g3
S'9-7-5-3-1'
p87
sg5
F1.1393229166666667
sa(dp88
g3
S'9-7-4-1'
p89
sg5
F1.0416666666666665
sa(dp90
g3
S'9-6-3'
p91
sg5
F0.0
sa(dp92
g3
S'9-7-5-2'
p93
sg5
F0.0
sa(dp94
g3
S'9-6-4-2-1'
p95
sg5
F0.0
sa(dp96
g3
S'9-6-4-1'
p97
sg5
F0.0
sa(dp98
g3
S'9-6-3-1'
p99
sg5
F0.0
sas.