(dp0
I2
(lp1
(dp2
S'pattern'
p3
S'2'
p4
sS'oe'
p5
F0.9395822550034506
sa(dp6
g3
S'2-1'
p7
sg5
F0.0
sa(dp8
g3
S'2'
p9
sg5
F0.9704173983520195
sa(dp10
g3
S'2-1'
p11
sg5
F0.0
sa(dp12
g3
S'2'
p13
sg5
F0.903903903903904
sa(dp14
g3
S'2-1'
p15
sg5
F0.0
sa(dp16
g3
S'2'
p17
sg5
F0.9399936280116786
sa(dp18
g3
S'2-1'
p19
sg5
F0.0
sa(dp20
g3
S'2'
p21
sg5
F0.9716904018728053
sa(dp22
g3
S'2-1'
p23
sg5
F0.0
sa(dp24
g3
S'2'
p25
sg5
F0.927467062162328
sa(dp26
g3
S'2-1'
p27
sg5
F0.0
sa(dp28
g3
S'2'
p29
sg5
F0.9454416005126197
sa(dp30
g3
S'2-1'
p31
sg5
F0.0
sa(dp32
g3
S'2'
p33
sg5
F0.9546813584507717
sa(dp34
g3
S'2-1'
p35
sg5
F0.0
sa(dp36
g3
S'2'
p37
sg5
F0.926808017493328
sa(dp38
g3
S'2-1'
p39
sg5
F0.0
sa(dp40
g3
S'2'
p41
sg5
F0.9036472598539788
sa(dp42
g3
S'2-1'
p43
sg5
F0.0
sa(dp44
g3
S'2'
p45
sg5
F0.9389004628854308
sa(dp46
g3
S'2-1'
p47
sg5
F0.0
sa(dp48
g3
S'2'
p49
sg5
F0.9359644326681107
sa(dp50
g3
S'2-1'
p51
sg5
F0.0
sa(dp52
g3
S'2'
p53
sg5
F0.9486356533720028
sa(dp54
g3
S'2-1'
p55
sg5
F0.0
sa(dp56
g3
S'2'
p57
sg5
F0.961155028546333
sa(dp58
g3
S'2-1'
p59
sg5
F0.0
sa(dp60
g3
S'2'
p61
sg5
F0.9359467242262529
sa(dp62
g3
S'2-1'
p63
sg5
F0.0
sa(dp64
g3
S'2'
p65
sg5
F0.9605387164442283
sa(dp66
g3
S'2-1'
p67
sg5
F0.0
sa(dp68
g3
S'2'
p69
sg5
F0.9174021915246531
sa(dp70
g3
S'2-1'
p71
sg5
F0.0
sa(dp72
g3
S'2'
p73
sg5
F0.9034863975619004
sa(dp74
g3
S'2-1'
p75
sg5
F0.0
sa(dp76
g3
S'2'
p77
sg5
F0.9244845889908796
sa(dp78
g3
S'2-1'
p79
sg5
F0.0
sa(dp80
g3
S'2'
p81
sg5
F0.9302595055552669
sa(dp82
g3
S'2-1'
p83
sg5
F0.0
sasI3
(lp84
(dp85
g3
S'3-1'
p86
sg5
F1.0201294805555308
sa(dp87
g3
S'3'
p88
sg5
F0.38230071033938434
sa(dp89
g3
S'3-2'
p90
sg5
F0.0
sa(dp91
g3
S'3'
p92
sg5
F1.143955211659707
sa(dp93
g3
S'3-1'
p94
sg5
F0.9319825990818852
sa(dp95
g3
S'3-1'
p96
sg5
F0.9719735721626781
sa(dp97
g3
S'3'
p98
sg5
F0.39232804232804236
sa(dp99
g3
S'3-2'
p100
sg5
F0.0
sa(dp101
g3
S'3-1'
p102
sg5
F1.0096525455221106
sa(dp103
g3
S'3'
p104
sg5
F0.5821567423777368
sa(dp105
g3
S'3-2'
p106
sg5
F0.0
sa(dp107
g3
S'3-1'
p108
sg5
F0.9713646742867523
sa(dp109
g3
S'3'
p110
sg5
F0.8991552391199835
sa(dp111
g3
S'3-2'
p112
sg5
F0.0
sa(dp113
g3
S'3-1'
p114
sg5
F0.9680447194571488
sa(dp115
g3
S'3'
p116
sg5
F0.8124530327428878
sa(dp117
g3
S'3-1'
p118
sg5
F0.9409604430546342
sa(dp119
g3
S'3'
p120
sg5
F0.8748731678096845
sa(dp121
g3
S'3-2'
p122
sg5
F0.0
sa(dp123
g3
S'3-1'
p124
sg5
F0.9648257241040746
sa(dp125
g3
S'3'
p126
sg5
F0.7366379310344827
sa(dp127
g3
S'3-2'
p128
sg5
F0.0
sa(dp129
g3
S'3-1'
p130
sg5
F0.9663083217665043
sa(dp131
g3
S'3'
p132
sg5
F0.6995266226889363
sa(dp133
g3
S'3-2'
p134
sg5
F0.0
sa(dp135
g3
S'3-1'
p136
sg5
F0.9851591458557907
sa(dp137
g3
S'3'
p138
sg5
F0.7324844269331514
sa(dp139
g3
S'3'
p140
sg5
F0.9257079984691924
sa(dp141
g3
S'3-1'
p142
sg5
F0.9139606626366376
sa(dp143
g3
S'3-2'
p144
sg5
F0.0
sa(dp145
g3
S'3-1'
p146
sg5
F1.0058861473955814
sa(dp147
g3
S'3'
p148
sg5
F0.6046390860308118
sa(dp149
g3
S'3-1'
p150
sg5
F1.0518090097037465
sa(dp151
g3
S'3'
p152
sg5
F0.435025641025641
sa(dp153
g3
S'3-1'
p154
sg5
F1.0538411151672162
sa(dp155
g3
S'3'
p156
sg5
F0.5339861788045114
sa(dp157
g3
S'3-1'
p158
sg5
F1.0500862126994155
sa(dp159
g3
S'3'
p160
sg5
F0.5941800822710883
sa(dp161
g3
S'3-1'
p162
sg5
F1.0316239265934093
sa(dp163
g3
S'3'
p164
sg5
F0.6788417907765573
sa(dp165
g3
S'3-2'
p166
sg5
F0.0
sa(dp167
g3
S'3-1'
p168
sg5
F0.9646592663811439
sa(dp169
g3
S'3'
p170
sg5
F0.7372185133867966
sa(dp171
g3
S'3-1'
p172
sg5
F1.0800959421201637
sa(dp173
g3
S'3'
p174
sg5
F0.2897298779651721
sa(dp175
g3
S'3-2'
p176
sg5
F0.0
sa(dp177
g3
S'3'
p178
sg5
F1.1224701978266134
sa(dp179
g3
S'3-1'
p180
sg5
F0.9049800773938705
sa(dp181
g3
S'3'
p182
sg5
F1.136285836542576
sa(dp183
g3
S'3-1'
p184
sg5
F0.9200348938644956
sasI4
(lp185
(dp186
g3
S'4-1'
p187
sg5
F0.9629629629629629
sa(dp188
g3
S'4-2'
p189
sg5
F0.9039050067327702
sa(dp190
g3
S'4-2-1'
p191
sg5
F0.0
sa(dp192
g3
S'4'
p193
sg5
F0.0
sa(dp194
g3
S'4-2'
p195
sg5
F0.9964773227653015
sa(dp196
g3
S'4-1'
p197
sg5
F0.8144499178981939
sa(dp198
g3
S'4-2-1'
p199
sg5
F0.0
sa(dp200
g3
S'4-2'
p201
sg5
F0.9135767727526521
sa(dp202
g3
S'4-1'
p203
sg5
F0.8148268314664607
sa(dp204
g3
S'4-2-1'
p205
sg5
F0.0
sa(dp206
g3
S'4-3-1'
p207
sg5
F0.0
sa(dp208
g3
S'4'
p209
sg5
F0.0
sa(dp210
g3
S'4-2'
p211
sg5
F0.9786538049032845
sa(dp212
g3
S'4-1'
p213
sg5
F0.6580284552845528
sa(dp214
g3
S'4-2-1'
p215
sg5
F0.0
sa(dp216
g3
S'4-3-1'
p217
sg5
F0.0
sa(dp218
g3
S'4-2'
p219
sg5
F1.0196024704483304
sa(dp220
g3
S'4-1'
p221
sg5
F0.7971583696758707
sa(dp222
g3
S'4-2-1'
p223
sg5
F0.0
sa(dp224
g3
S'4-3-1'
p225
sg5
F0.0
sa(dp226
g3
S'4'
p227
sg5
F0.0
sa(dp228
g3
S'4-2'
p229
sg5
F0.9321121582006989
sa(dp230
g3
S'4-1'
p231
sg5
F0.9145695979199554
sa(dp232
g3
S'4-2-1'
p233
sg5
F0.0
sa(dp234
g3
S'4'
p235
sg5
F0.0
sa(dp236
g3
S'4-2'
p237
sg5
F0.9617278386994476
sa(dp238
g3
S'4-1'
p239
sg5
F0.8734882842025699
sa(dp240
g3
S'4-2-1'
p241
sg5
F0.0
sa(dp242
g3
S'4-3'
p243
sg5
F0.0
sa(dp244
g3
S'4-2'
p245
sg5
F1.037443827650013
sa(dp246
g3
S'4-1'
p247
sg5
F0.5063247863247864
sa(dp248
g3
S'4-2-1'
p249
sg5
F0.0
sa(dp250
g3
S'4-3'
p251
sg5
F0.0
sa(dp252
g3
S'4-2'
p253
sg5
F0.9651798195450503
sa(dp254
g3
S'4-1'
p255
sg5
F0.7314457314457314
sa(dp256
g3
S'4-2-1'
p257
sg5
F0.0
sa(dp258
g3
S'4'
p259
sg5
F0.0
sa(dp260
g3
S'4-2'
p261
sg5
F0.8904234925060996
sa(dp262
g3
S'4-1'
p263
sg5
F0.7931918642148149
sa(dp264
g3
S'4-2-1'
p265
sg5
F0.0
sa(dp266
g3
S'4'
p267
sg5
F0.0
sa(dp268
g3
S'4-2'
p269
sg5
F0.9498058537871183
sa(dp270
g3
S'4-1'
p271
sg5
F0.7768413036543074
sa(dp272
g3
S'4-3-1'
p273
sg5
F0.0
sa(dp274
g3
S'4-2-1'
p275
sg5
F0.0
sa(dp276
g3
S'4'
p277
sg5
F0.0
sa(dp278
g3
S'4-2'
p279
sg5
F0.9840560285150382
sa(dp280
g3
S'4-1'
p281
sg5
F0.8234726849184679
sa(dp282
g3
S'4-2-1'
p283
sg5
F0.0
sa(dp284
g3
S'4'
p285
sg5
F0.0
sa(dp286
g3
S'4-1'
p287
sg5
F1.3979014650149897
sa(dp288
g3
S'4-2'
p289
sg5
F0.8500136513514838
sa(dp290
g3
S'4-2-1'
p291
sg5
F0.0
sa(dp292
g3
S'4-2'
p293
sg5
F0.9788472305969506
sa(dp294
g3
S'4-1'
p295
sg5
F0.8740601503759399
sa(dp296
g3
S'4-2-1'
p297
sg5
F0.0
sa(dp298
g3
S'4'
p299
sg5
F0.0
sa(dp300
g3
S'4-1'
p301
sg5
F1.200537634408602
sa(dp302
g3
S'4-2'
p303
sg5
F0.8414983418751885
sa(dp304
g3
S'4-2-1'
p305
sg5
F0.0
sa(dp306
g3
S'4-2'
p307
sg5
F1.0370907056437513
sa(dp308
g3
S'4-1'
p309
sg5
F0.6158542169042458
sa(dp310
g3
S'4-2-1'
p311
sg5
F0.0
sa(dp312
g3
S'4-3-1'
p313
sg5
F0.0
sa(dp314
g3
S'4-1'
p315
sg5
F1.0460069444444444
sa(dp316
g3
S'4-2'
p317
sg5
F0.8709969766349654
sa(dp318
g3
S'4-2-1'
p319
sg5
F0.0
sa(dp320
g3
S'4'
p321
sg5
F0.0
sa(dp322
g3
S'4-2'
p323
sg5
F0.9405382768712354
sa(dp324
g3
S'4-1'
p325
sg5
F0.6498340576122633
sa(dp326
g3
S'4-3'
p327
sg5
F0.0
sa(dp328
g3
S'4'
p329
sg5
F0.0
sa(dp330
g3
S'4-2'
p331
sg5
F0.9305053025577043
sa(dp332
g3
S'4-1'
p333
sg5
F0.8871028037383178
sa(dp334
g3
S'4-2-1'
p335
sg5
F0.0
sa(dp336
g3
S'4-2'
p337
sg5
F0.9614841710714331
sa(dp338
g3
S'4-1'
p339
sg5
F0.6397729387679137
sa(dp340
g3
S'4-2-1'
p341
sg5
F0.0
sasI5
(lp342
(dp343
g3
S'5-2'
p344
sg5
F1.1002943537597005
sa(dp345
g3
S'5-3-1'
p346
sg5
F0.9726705928091117
sa(dp347
g3
S'5-3'
p348
sg5
F0.3889363751279119
sa(dp349
g3
S'5'
p350
sg5
F0.0
sa(dp351
g3
S'5-2-1'
p352
sg5
F0.0
sa(dp353
g3
S'5-3'
p354
sg5
F1.2952488687782806
sa(dp355
g3
S'5-2'
p356
sg5
F0.9314177537861749
sa(dp357
g3
S'5-3-1'
p358
sg5
F0.9040153394992104
sa(dp359
g3
S'5-3-1'
p360
sg5
F0.978830988377978
sa(dp361
g3
S'5-2'
p362
sg5
F0.9245422055193251
sa(dp363
g3
S'5-3'
p364
sg5
F0.39733962296873104
sa(dp365
g3
S'5-4-2'
p366
sg5
F0.0
sa(dp367
g3
S'5-2-1'
p368
sg5
F0.0
sa(dp369
g3
S'5-3-1'
p370
sg5
F1.032824857311049
sa(dp371
g3
S'5-2'
p372
sg5
F0.805023132848645
sa(dp373
g3
S'5-3'
p374
sg5
F0.5408316923433337
sa(dp375
g3
S'5-4-2'
p376
sg5
F0.0
sa(dp377
g3
S'5-3-1'
p378
sg5
F1.0162790697674418
sa(dp379
g3
S'5-2'
p380
sg5
F0.9410736142682288
sa(dp381
g3
S'5-3'
p382
sg5
F0.7491039842254829
sa(dp383
g3
S'5-4-2'
p384
sg5
F0.0
sa(dp385
g3
S'5-2'
p386
sg5
F1.0163966468314294
sa(dp387
g3
S'5-3'
p388
sg5
F0.9123635535118788
sa(dp389
g3
S'5-3-1'
p390
sg5
F0.9061882817643185
sa(dp391
g3
S'5-1'
p392
sg5
F0.0
sa(dp393
g3
S'5-2'
p394
sg5
F1.0839167213592942
sa(dp395
g3
S'5-3'
p396
sg5
F0.937037037037037
sa(dp397
g3
S'5-3-1'
p398
sg5
F0.8566161717495988
sa(dp399
g3
S'5-2-1'
p400
sg5
F0.0
sa(dp401
g3
S'5-4-1'
p402
sg5
F0.0
sa(dp403
g3
S'5-2'
p404
sg5
F1.3581270903010034
sa(dp405
g3
S'5-3-1'
p406
sg5
F0.8887990948763536
sa(dp407
g3
S'5-3'
p408
sg5
F0.6069130434782609
sa(dp409
g3
S'5-4-1'
p410
sg5
F0.0
sa(dp411
g3
S'5-3-1'
p412
sg5
F0.9627930579518927
sa(dp413
g3
S'5-2'
p414
sg5
F0.8463780403794182
sa(dp415
g3
S'5-3'
p416
sg5
F0.8096976778151015
sa(dp417
g3
S'5-2-1'
p418
sg5
F0.0
sa(dp419
g3
S'5-3-1'
p420
sg5
F1.0647589239138535
sa(dp421
g3
S'5-3'
p422
sg5
F0.7915886929971436
sa(dp423
g3
S'5-2'
p424
sg5
F0.5498345262833834
sa(dp425
g3
S'5-3'
p426
sg5
F1.036822001527884
sa(dp427
g3
S'5-3-1'
p428
sg5
F0.9192684866154254
sa(dp429
g3
S'5-2'
p430
sg5
F0.7886341846073389
sa(dp431
g3
S'5-4-2'
p432
sg5
F0.0
sa(dp433
g3
S'5-2-1'
p434
sg5
F0.0
sa(dp435
g3
S'5-2'
p436
sg5
F1.0963510087090729
sa(dp437
g3
S'5-3-1'
p438
sg5
F0.884953144339011
sa(dp439
g3
S'5-3'
p440
sg5
F0.7450554390170812
sa(dp441
g3
S'5-2-1'
p442
sg5
F0.0
sa(dp443
g3
S'5-3-1'
p444
sg5
F1.0776030198175528
sa(dp445
g3
S'5-2'
p446
sg5
F0.7471639471639472
sa(dp447
g3
S'5-3'
p448
sg5
F0.4799140049140049
sa(dp449
g3
S'5-3-1'
p450
sg5
F1.0444163226355208
sa(dp451
g3
S'5-2'
p452
sg5
F0.9991664351208669
sa(dp453
g3
S'5-3'
p454
sg5
F0.43727316945411004
sa(dp455
g3
S'5-2'
p456
sg5
F1.0908156223151786
sa(dp457
g3
S'5-3-1'
p458
sg5
F0.9742513309671695
sa(dp459
g3
S'5-3'
p460
sg5
F0.7176097403460786
sa(dp461
g3
S'5-2-1'
p462
sg5
F0.0
sa(dp463
g3
S'5-3-1'
p464
sg5
F1.011825213090603
sa(dp465
g3
S'5-2'
p466
sg5
F0.8805251809641153
sa(dp467
g3
S'5-3'
p468
sg5
F0.813953488372093
sa(dp469
g3
S'5-4-2'
p470
sg5
F0.0
sa(dp471
g3
S'5-2-1'
p472
sg5
F0.0
sa(dp473
g3
S'5-2'
p474
sg5
F1.031721268850754
sa(dp475
g3
S'5-3-1'
p476
sg5
F0.9507038035339922
sa(dp477
g3
S'5-3'
p478
sg5
F0.8181654166344494
sa(dp479
g3
S'5-3-1'
p480
sg5
F1.1446224256292905
sa(dp481
g3
S'5-2'
p482
sg5
F0.8835002057330956
sa(dp483
g3
S'5-3'
p484
sg5
F0.2204404291360813
sa(dp485
g3
S'5-4-1'
p486
sg5
F0.0
sa(dp487
g3
S'5-2-1'
p488
sg5
F0.0
sa(dp489
g3
S'5-3'
p490
sg5
F1.3729338842975207
sa(dp491
g3
S'5-3-1'
p492
sg5
F0.9111626139251355
sa(dp493
g3
S'5-2'
p494
sg5
F0.8222919520926327
sa(dp495
g3
S'5-2-1'
p496
sg5
F0.0
sa(dp497
g3
S'5-3'
p498
sg5
F1.2355677154582763
sa(dp499
g3
S'5-3-1'
p500
sg5
F0.9095425433355264
sa(dp501
g3
S'5-2'
p502
sg5
F0.803599572932025
sasI6
(lp503
(dp504
g3
S'6-4-1'
p505
sg5
F1.0467156944676583
sa(dp506
g3
S'6-4-2'
p507
sg5
F0.9392198610051019
sa(dp508
g3
S'6-3-1'
p509
sg5
F0.8093594913151364
sa(dp510
g3
S'6-3'
p511
sg5
F0.3026458861906488
sa(dp512
g3
S'6-4'
p513
sg5
F0.0
sa(dp514
g3
S'6-4-2-1'
p515
sg5
F0.0
sa(dp516
g3
S'6-3-1'
p517
sg5
F1.055246913580247
sa(dp518
g3
S'6-4-2'
p519
sg5
F0.9613031386571315
sa(dp520
g3
S'6-3'
p521
sg5
F0.9228070175438596
sa(dp522
g3
S'6-4-1'
p523
sg5
F0.8723051409618574
sa(dp524
g3
S'6-4-2-1'
p525
sg5
F0.0
sa(dp526
g3
S'6-3-1'
p527
sg5
F0.9327628240210954
sa(dp528
g3
S'6-4-1'
p529
sg5
F0.913468441106632
sa(dp530
g3
S'6-4-2'
p531
sg5
F0.8943582226734389
sa(dp532
g3
S'6-3'
p533
sg5
F0.23886674753075723
sa(dp534
g3
S'6-5-3-1'
p535
sg5
F0.0
sa(dp536
g3
S'6-4-2-1'
p537
sg5
F0.0
sa(dp538
g3
S'6-3-1'
p539
sg5
F1.3185490611244217
sa(dp540
g3
S'6-4-2'
p541
sg5
F0.884037755779153
sa(dp542
g3
S'6-4-1'
p543
sg5
F0.581093110201175
sa(dp544
g3
S'6-3'
p545
sg5
F0.5540655236801901
sa(dp546
g3
S'6-5-3-1'
p547
sg5
F0.0
sa(dp548
g3
S'6-4-2-1'
p549
sg5
F0.0
sa(dp550
g3
S'6-3'
p551
sg5
F1.3687979539641943
sa(dp552
g3
S'6-4-2'
p553
sg5
F1.0524885583524026
sa(dp554
g3
S'6-4-1'
p555
sg5
F0.7699488491048593
sa(dp556
g3
S'6-3-1'
p557
sg5
F0.745819397993311
sa(dp558
g3
S'6-4'
p559
sg5
F0.0
sa(dp560
g3
S'6-5-3-1'
p561
sg5
F0.0
sa(dp562
g3
S'6-4-2'
p563
sg5
F0.9816375090203421
sa(dp564
g3
S'6-3-1'
p565
sg5
F0.9316233131941681
sa(dp566
g3
S'6-3'
p567
sg5
F0.7854716268925891
sa(dp568
g3
S'6-4-1'
p569
sg5
F0.7496477520174203
sa(dp570
g3
S'6-4'
p571
sg5
F0.0
sa(dp572
g3
S'6-2'
p573
sg5
F0.0
sa(dp574
g3
S'6-4-2-1'
p575
sg5
F0.0
sa(dp576
g3
S'6-4-1'
p577
sg5
F1.0581516773267197
sa(dp578
g3
S'6-4-2'
p579
sg5
F0.9502884740895445
sa(dp580
g3
S'6-3-1'
p581
sg5
F0.874360007762005
sa(dp582
g3
S'6-3'
p583
sg5
F0.6160490797546013
sa(dp584
g3
S'6-5-2'
p585
sg5
F0.0
sa(dp586
g3
S'6-4-2-1'
p587
sg5
F0.0
sa(dp588
g3
S'6-3'
p589
sg5
F1.1710239651416123
sa(dp590
g3
S'6-3-1'
p591
sg5
F1.1441038739889313
sa(dp592
g3
S'6-4-2'
p593
sg5
F0.9764248142725448
sa(dp594
g3
S'6-4-1'
p595
sg5
F0.5469067969067969
sa(dp596
g3
S'6-5-2'
p597
sg5
F0.0
sa(dp598
g3
S'6-4-2-1'
p599
sg5
F0.0
sa(dp600
g3
S'6-4-2'
p601
sg5
F0.9668681441683457
sa(dp602
g3
S'6-3-1'
p603
sg5
F0.8922631959508315
sa(dp604
g3
S'6-4-1'
p605
sg5
F0.782994923857868
sa(dp606
g3
S'6-3'
p607
sg5
F0.6387163561076604
sa(dp608
g3
S'6-4'
p609
sg5
F0.0
sa(dp610
g3
S'6-3-2'
p611
sg5
F0.0
sa(dp612
g3
S'6-4-2-1'
p613
sg5
F0.0
sa(dp614
g3
S'6-4-1'
p615
sg5
F0.9128909229595729
sa(dp616
g3
S'6-4-2'
p617
sg5
F0.894778007821486
sa(dp618
g3
S'6-3-1'
p619
sg5
F0.8067408156386923
sa(dp620
g3
S'6-3'
p621
sg5
F0.22048636698599855
sa(dp622
g3
S'6-4'
p623
sg5
F0.0
sa(dp624
g3
S'6-4-2-1'
p625
sg5
F0.0
sa(dp626
g3
S'6-4-2'
p627
sg5
F0.9302603283296612
sa(dp628
g3
S'6-4-1'
p629
sg5
F0.9034560933844633
sa(dp630
g3
S'6-3'
p631
sg5
F0.8744164332399627
sa(dp632
g3
S'6-3-1'
p633
sg5
F0.8076207334785765
sa(dp634
g3
S'6-4'
p635
sg5
F0.0
sa(dp636
g3
S'6-5-3-1'
p637
sg5
F0.0
sa(dp638
g3
S'6-4-2-1'
p639
sg5
F0.0
sa(dp640
g3
S'6-4-1'
p641
sg5
F1.090909090909091
sa(dp642
g3
S'6-4-2'
p643
sg5
F0.935232269520029
sa(dp644
g3
S'6-3-1'
p645
sg5
F0.7788706281620212
sa(dp646
g3
S'6-3'
p647
sg5
F0.3886963476406292
sa(dp648
g3
S'6-4-2-1'
p649
sg5
F0.0
sa(dp650
g3
S'6-4-1'
p651
sg5
F1.6350708115413999
sa(dp652
g3
S'6-3-1'
p653
sg5
F1.0206839573928181
sa(dp654
g3
S'6-4-2'
p655
sg5
F0.7958013356786363
sa(dp656
g3
S'6-3'
p657
sg5
F0.4206993006993007
sa(dp658
g3
S'6-4-2-1'
p659
sg5
F0.0
sa(dp660
g3
S'6-3'
p661
sg5
F1.3763440860215055
sa(dp662
g3
S'6-3-1'
p663
sg5
F1.1510791366906474
sa(dp664
g3
S'6-4-1'
p665
sg5
F1.130890052356021
sa(dp666
g3
S'6-4-2'
p667
sg5
F0.860832137733142
sa(dp668
g3
S'6-4'
p669
sg5
F0.0
sa(dp670
g3
S'6-3-1'
p671
sg5
F1.212323491655969
sa(dp672
g3
S'6-4-1'
p673
sg5
F1.1332913329133292
sa(dp674
g3
S'6-4-2'
p675
sg5
F0.7853477100127005
sa(dp676
g3
S'6-3'
p677
sg5
F0.631418485237484
sa(dp678
g3
S'6-4-2-1'
p679
sg5
F0.0
sa(dp680
g3
S'6-4-2'
p681
sg5
F1.083098689712852
sa(dp682
g3
S'6-3-1'
p683
sg5
F0.9101307189542485
sa(dp684
g3
S'6-4-1'
p685
sg5
F0.6414776754075124
sa(dp686
g3
S'6-3'
p687
sg5
F0.3667690956979807
sa(dp688
g3
S'6-5-3-1'
p689
sg5
F0.0
sa(dp690
g3
S'6-4-2-1'
p691
sg5
F0.0
sa(dp692
g3
S'6-4-1'
p693
sg5
F1.1701101765193698
sa(dp694
g3
S'6-3-1'
p695
sg5
F0.8833420639078051
sa(dp696
g3
S'6-4-2'
p697
sg5
F0.829069634048411
sa(dp698
g3
S'6-3'
p699
sg5
F0.7904840032813781
sa(dp700
g3
S'6-4'
p701
sg5
F0.0
sa(dp702
g3
S'6-4-2-1'
p703
sg5
F0.0
sa(dp704
g3
S'6-4-2'
p705
sg5
F1.0100588250273752
sa(dp706
g3
S'6-4-1'
p707
sg5
F0.8735858337432365
sa(dp708
g3
S'6-3-1'
p709
sg5
F0.44459279038718286
sa(dp710
g3
S'6-4'
p711
sg5
F0.0
sa(dp712
g3
S'6-5-2'
p713
sg5
F0.0
sa(dp714
g3
S'6-3'
p715
sg5
F0.0
sa(dp716
g3
S'6-3'
p717
sg5
F1.0659611992945326
sa(dp718
g3
S'6-4-2'
p719
sg5
F0.9493193717277486
sa(dp720
g3
S'6-4-1'
p721
sg5
F0.8325068870523415
sa(dp722
g3
S'6-3-1'
p723
sg5
F0.809103078982597
sa(dp724
g3
S'6-4-2-1'
p725
sg5
F0.0
sa(dp726
g3
S'6-4-2'
p727
sg5
F0.9445269301658816
sa(dp728
g3
S'6-3-1'
p729
sg5
F0.8527286453839517
sa(dp730
g3
S'6-3'
p731
sg5
F0.8406698564593301
sa(dp732
g3
S'6-4-1'
p733
sg5
F0.7392518359853121
sa(dp734
g3
S'6-4-2-1'
p735
sg5
F0.0
sasI7
(lp736
(dp737
g3
S'7-5-2'
p738
sg5
F1.4760966483560227
sa(dp739
g3
S'7-4-1'
p740
sg5
F1.2192174913693903
sa(dp741
g3
S'7-5-3-1'
p742
sg5
F0.9474102891650215
sa(dp743
g3
S'7-4-2'
p744
sg5
F0.5144095717010577
sa(dp745
g3
S'7-5-3'
p746
sg5
F0.45548125149271557
sa(dp747
g3
S'7-5-2-1'
p748
sg5
F0.0
sa(dp749
g3
S'7-5'
p750
sg5
F0.0
sa(dp751
g3
S'7-4-2'
p752
sg5
F1.2988119583211606
sa(dp753
g3
S'7-5-3'
p754
sg5
F1.2769589317208363
sa(dp755
g3
S'7-5-2'
p756
sg5
F0.907312925170068
sa(dp757
g3
S'7-5-3-1'
p758
sg5
F0.7793791262817812
sa(dp759
g3
S'7-4-1'
p760
sg5
F0.7527336860670194
sa(dp761
g3
S'7-5-2'
p762
sg5
F1.0748940178991993
sa(dp763
g3
S'7-5-3-1'
p764
sg5
F0.9936738897505273
sa(dp765
g3
S'7-4-2'
p766
sg5
F0.7901358057938676
sa(dp767
g3
S'7-4-1'
p768
sg5
F0.47391101188931
sa(dp769
g3
S'7-5-3'
p770
sg5
F0.3499127901404941
sa(dp771
g3
S'7-5-2-1'
p772
sg5
F0.0
sa(dp773
g3
S'7-6-4-2'
p774
sg5
F0.0
sa(dp775
g3
S'7-4'
p776
sg5
F0.0
sa(dp777
g3
S'7-4-1'
p778
sg5
F1.7286680541103017
sa(dp779
g3
S'7-5-3-1'
p780
sg5
F1.0038656358304452
sa(dp781
g3
S'7-4-2'
p782
sg5
F0.8554066333484779
sa(dp783
g3
S'7-5-2'
p784
sg5
F0.799831487722677
sa(dp785
g3
S'7-5-3'
p786
sg5
F0.5496277915632755
sa(dp787
g3
S'7-6-4-2'
p788
sg5
F0.0
sa(dp789
g3
S'7-4-2'
p790
sg5
F1.1688518518518518
sa(dp791
g3
S'7-5-2'
p792
sg5
F0.9766626115166263
sa(dp793
g3
S'7-5-3-1'
p794
sg5
F0.9494075003485293
sa(dp795
g3
S'7-4-1'
p796
sg5
F0.9227777777777778
sa(dp797
g3
S'7-5-3'
p798
sg5
F0.5102918586789554
sa(dp799
g3
S'7-6-4-2'
p800
sg5
F0.0
sa(dp801
g3
S'7-4-1'
p802
sg5
F1.9002873563218392
sa(dp803
g3
S'7-5-2'
p804
sg5
F1.0338870431893687
sa(dp805
g3
S'7-5-3-1'
p806
sg5
F0.9341506572295247
sa(dp807
g3
S'7-5-3'
p808
sg5
F0.8802801724137931
sa(dp809
g3
S'7-4-2'
p810
sg5
F0.6988023952095808
sa(dp811
g3
S'7-3-1'
p812
sg5
F0.0
sa(dp813
g3
S'7-4'
p814
sg5
F0.0
sa(dp815
g3
S'7-5-2'
p816
sg5
F1.260243243243243
sa(dp817
g3
S'7-4-1'
p818
sg5
F1.1956153846153845
sa(dp819
g3
S'7-4-2'
p820
sg5
F0.9264373177842565
sa(dp821
g3
S'7-5-3-1'
p822
sg5
F0.819431724137931
sa(dp823
g3
S'7-5-3'
p824
sg5
F0.4876235294117646
sa(dp825
g3
S'7-5-2-1'
p826
sg5
F0.0
sa(dp827
g3
S'7-6-3-1'
p828
sg5
F0.0
sa(dp829
g3
S'7-4-2-1'
p830
sg5
F0.0
sa(dp831
g3
S'7-5-2'
p832
sg5
F1.2351800218208269
sa(dp833
g3
S'7-4-2'
p834
sg5
F1.214757571980556
sa(dp835
g3
S'7-5-3-1'
p836
sg5
F0.7925016652393186
sa(dp837
g3
S'7-5-3'
p838
sg5
F0.7539142273655548
sa(dp839
g3
S'7-4-1'
p840
sg5
F0.5600505689001264
sa(dp841
g3
S'7-6-3'
p842
sg5
F0.0
sa(dp843
g3
S'7-4-1'
p844
sg5
F1.3446098003629765
sa(dp845
g3
S'7-4-2'
p846
sg5
F1.0485670093713038
sa(dp847
g3
S'7-5-3-1'
p848
sg5
F0.8645545247680728
sa(dp849
g3
S'7-5-2'
p850
sg5
F0.8348884381338743
sa(dp851
g3
S'7-5-3'
p852
sg5
F0.7885057471264368
sa(dp853
g3
S'7-5-2-1'
p854
sg5
F0.0
sa(dp855
g3
S'7-4'
p856
sg5
F0.0
sa(dp857
g3
S'7-5-3-1'
p858
sg5
F1.014308426073132
sa(dp859
g3
S'7-4-1'
p860
sg5
F0.9565217391304348
sa(dp861
g3
S'7-4-2'
p862
sg5
F0.8148148148148148
sa(dp863
g3
S'7-5-2'
p864
sg5
F0.7647058823529412
sa(dp865
g3
S'7-5-3'
p866
sg5
F0.6470588235294118
sa(dp867
g3
S'7-4-2-1'
p868
sg5
F0.0
sa(dp869
g3
S'7-5-3'
p870
sg5
F1.079597701149425
sa(dp871
g3
S'7-5-2'
p872
sg5
F0.9740370370370369
sa(dp873
g3
S'7-5-3-1'
p874
sg5
F0.8901767365392519
sa(dp875
g3
S'7-4-1'
p876
sg5
F0.889080459770115
sa(dp877
g3
S'7-4-2'
p878
sg5
F0.7860772357723578
sa(dp879
g3
S'7-5-2-1'
p880
sg5
F0.0
sa(dp881
g3
S'7-6-4-2'
p882
sg5
F0.0
sa(dp883
g3
S'7-4'
p884
sg5
F0.0
sa(dp885
g3
S'7-4-2'
p886
sg5
F1.2682401656314701
sa(dp887
g3
S'7-5-2'
p888
sg5
F1.215327929255711
sa(dp889
g3
S'7-4-1'
p890
sg5
F0.8194782608695652
sa(dp891
g3
S'7-5-3-1'
p892
sg5
F0.8101169099105984
sa(dp893
g3
S'7-5-3'
p894
sg5
F0.7973965113251757
sa(dp895
g3
S'7-5-2-1'
p896
sg5
F0.0
sa(dp897
g3
S'7-4-2-1'
p898
sg5
F0.0
sa(dp899
g3
S'7-4'
p900
sg5
F0.0
sa(dp901
g3
S'7-4-1'
p902
sg5
F1.1063372717508055
sa(dp903
g3
S'7-5-3-1'
p904
sg5
F1.0700410331823251
sa(dp905
g3
S'7-5-2'
p906
sg5
F0.8850698174006445
sa(dp907
g3
S'7-4-2'
p908
sg5
F0.8448393711551605
sa(dp909
g3
S'7-5-3'
p910
sg5
F0.3241825493967476
sa(dp911
g3
S'7-4-2-1'
p912
sg5
F0.0
sa(dp913
g3
S'7-5-2'
p914
sg5
F1.1323221533860286
sa(dp915
g3
S'7-4-2'
p916
sg5
F1.0932927768365932
sa(dp917
g3
S'7-5-3-1'
p918
sg5
F1.0540715112998544
sa(dp919
g3
S'7-5-3'
p920
sg5
F0.37422160719580905
sa(dp921
g3
S'7-4-1'
p922
sg5
F0.31737781876100263
sa(dp923
g3
S'7-4-1'
p924
sg5
F1.4437250309960048
sa(dp925
g3
S'7-5-2'
p926
sg5
F1.2396850632144751
sa(dp927
g3
S'7-5-3-1'
p928
sg5
F0.9050532964863797
sa(dp929
g3
S'7-4-2'
p930
sg5
F0.8120953299352527
sa(dp931
g3
S'7-5-3'
p932
sg5
F0.6510346073913437
sa(dp933
g3
S'7-5-2-1'
p934
sg5
F0.0
sa(dp935
g3
S'7-5-3-1'
p936
sg5
F0.9910569608510111
sa(dp937
g3
S'7-5-2'
p938
sg5
F0.9792576882290563
sa(dp939
g3
S'7-4-1'
p940
sg5
F0.8912223133716161
sa(dp941
g3
S'7-4-2'
p942
sg5
F0.8605527195916213
sa(dp943
g3
S'7-5-3'
p944
sg5
F0.7978848413631022
sa(dp945
g3
S'7-4-2-1'
p946
sg5
F0.0
sa(dp947
g3
S'7-5-2'
p948
sg5
F1.2307968413496053
sa(dp949
g3
S'7-4-1'
p950
sg5
F0.9454680811464732
sa(dp951
g3
S'7-5-3-1'
p952
sg5
F0.9212379891087235
sa(dp953
g3
S'7-4-2'
p954
sg5
F0.8884993831432613
sa(dp955
g3
S'7-5-3'
p956
sg5
F0.6457884661402249
sa(dp957
g3
S'7-4-2-1'
p958
sg5
F0.0
sa(dp959
g3
S'7-5-3-1'
p960
sg5
F1.141592920353982
sa(dp961
g3
S'7-4-2'
p962
sg5
F1.0810055865921788
sa(dp963
g3
S'7-5-2'
p964
sg5
F1.033653846153846
sa(dp965
g3
S'7-5-3'
p966
sg5
F0.16929133858267717
sa(dp967
g3
S'7-5-2-1'
p968
sg5
F0.0
sa(dp969
g3
S'7-6-3'
p970
sg5
F0.0
sa(dp971
g3
S'7-4-1'
p972
sg5
F0.0
sa(dp973
g3
S'7-4-1'
p974
sg5
F1.881656804733728
sa(dp975
g3
S'7-5-2'
p976
sg5
F1.1677618863548511
sa(dp977
g3
S'7-5-3'
p978
sg5
F1.117866004962779
sa(dp979
g3
S'7-4-2'
p980
sg5
F0.9187432286023837
sa(dp981
g3
S'7-5-3-1'
p982
sg5
F0.7484206614641398
sa(dp983
g3
S'7-5-2-1'
p984
sg5
F0.0
sa(dp985
g3
S'7-5-2'
p986
sg5
F1.1147151898734176
sa(dp987
g3
S'7-5-3-1'
p988
sg5
F0.964610053930198
sa(dp989
g3
S'7-5-3'
p990
sg5
F0.9581023119573175
sa(dp991
g3
S'7-4-1'
p992
sg5
F0.5692162671694048
sa(dp993
g3
S'7-4-2'
p994
sg5
F0.5245718540580789
sa(dp995
g3
S'7-4-2-1'
p996
sg5
F0.0
sasI8
(lp997
(dp998
g3
S'8-6-3-1'
p999
sg5
F1.0822677278011268
sa(dp1000
g3
S'8-5-3-1'
p1001
sg5
F1.063256464011181
sa(dp1002
g3
S'8-6-4-1'
p1003
sg5
F1.0332963374028856
sa(dp1004
g3
S'8-6-4-2'
p1005
sg5
F0.920125786163522
sa(dp1006
g3
S'8-5-2'
p1007
sg5
F0.8238040785210596
sa(dp1008
g3
S'8-6-3'
p1009
sg5
F0.5723270440251572
sa(dp1010
g3
S'8-5-3'
p1011
sg5
F0.19771297884505432
sa(dp1012
g3
S'8-6-4-2-1'
p1013
sg5
F0.0
sa(dp1014
g3
S'8-5-3'
p1015
sg5
F1.6168582375478928
sa(dp1016
g3
S'8-5-2'
p1017
sg5
F1.3642241379310343
sa(dp1018
g3
S'8-6-3-1'
p1019
sg5
F1.1610418195157741
sa(dp1020
g3
S'8-6-3'
p1021
sg5
F1.136853448275862
sa(dp1022
g3
S'8-6-4-2'
p1023
sg5
F1.0069273399014778
sa(dp1024
g3
S'8-5-3-1'
p1025
sg5
F0.6929392446633826
sa(dp1026
g3
S'8-6-4-1'
p1027
sg5
F0.6236453201970444
sa(dp1028
g3
S'8-5-3-1'
p1029
sg5
F1.1224899598393574
sa(dp1030
g3
S'8-6-3-1'
p1031
sg5
F1.0793172690763053
sa(dp1032
g3
S'8-6-4-1'
p1033
sg5
F0.9148936170212766
sa(dp1034
g3
S'8-6-4-2'
p1035
sg5
F0.8074551569506727
sa(dp1036
g3
S'8-5-2'
p1037
sg5
F0.680379746835443
sa(dp1038
g3
S'8-5-3'
p1039
sg5
F0.35833333333333334
sa(dp1040
g3
S'8-6-3'
p1041
sg5
F0.2107843137254902
sa(dp1042
g3
S'8-7-5-3'
p1043
sg5
F0.0
sa(dp1044
g3
S'8-6-4-2-1'
p1045
sg5
F0.0
sa(dp1046
g3
S'8-5-2'
p1047
sg5
F1.7625418060200668
sa(dp1048
g3
S'8-6-3-1'
p1049
sg5
F1.2629236562820951
sa(dp1050
g3
S'8-5-3-1'
p1051
sg5
F1.1622558286074356
sa(dp1052
g3
S'8-6-4-2'
p1053
sg5
F0.808463668337948
sa(dp1054
g3
S'8-6-3'
p1055
sg5
F0.6029748283752859
sa(dp1056
g3
S'8-6-4-1'
p1057
sg5
F0.5412529955494694
sa(dp1058
g3
S'8-5-3'
p1059
sg5
F0.0
sa(dp1060
g3
S'8-7-5-3'
p1061
sg5
F0.0
sa(dp1062
g3
S'8-6-4-2-1'
p1063
sg5
F0.0
sa(dp1064
g3
S'8-5-2'
p1065
sg5
F1.145408163265306
sa(dp1066
g3
S'8-6-4-2'
p1067
sg5
F1.1399796885578877
sa(dp1068
g3
S'8-5-3-1'
p1069
sg5
F0.9799603174603174
sa(dp1070
g3
S'8-6-4-1'
p1071
sg5
F0.8234555984555985
sa(dp1072
g3
S'8-6-3-1'
p1073
sg5
F0.6681547619047619
sa(dp1074
g3
S'8-6-3'
p1075
sg5
F0.6414285714285715
sa(dp1076
g3
S'8-5-3'
p1077
sg5
F0.39432084309133486
sa(dp1078
g3
S'8-6-4'
p1079
sg5
F0.0
sa(dp1080
g3
S'8-7-5-3'
p1081
sg5
F0.0
sa(dp1082
g3
S'8-5-2'
p1083
sg5
F1.4533678756476685
sa(dp1084
g3
S'8-6-3-1'
p1085
sg5
F1.1010362694300517
sa(dp1086
g3
S'8-6-4-2'
p1087
sg5
F1.0007504470053903
sa(dp1088
g3
S'8-6-3'
p1089
sg5
F0.8622852467957457
sa(dp1090
g3
S'8-5-3'
p1091
sg5
F0.7061818831516884
sa(dp1092
g3
S'8-6-4-1'
p1093
sg5
F0.6619563510755221
sa(dp1094
g3
S'8-5-3-1'
p1095
sg5
F0.5559984057393385
sa(dp1096
g3
S'8-6-4'
p1097
sg5
F0.0
sa(dp1098
g3
S'8-6-4-2-1'
p1099
sg5
F0.0
sa(dp1100
g3
S'8-5-3'
p1101
sg5
F1.4464285714285716
sa(dp1102
g3
S'8-5-2'
p1103
sg5
F1.1534810126582278
sa(dp1104
g3
S'8-6-4-2'
p1105
sg5
F0.9236230636833046
sa(dp1106
g3
S'8-6-3'
p1107
sg5
F0.9204545454545454
sa(dp1108
g3
S'8-6-3-1'
p1109
sg5
F0.8778901734104047
sa(dp1110
g3
S'8-6-4-1'
p1111
sg5
F0.8678571428571429
sa(dp1112
g3
S'8-5-3-1'
p1113
sg5
F0.804322429906542
sa(dp1114
g3
S'8-6-4-2-1'
p1115
sg5
F0.0
sa(dp1116
g3
S'8-7-4-2'
p1117
sg5
F0.0
sa(dp1118
g3
S'8-6-3'
p1119
sg5
F1.4294117647058824
sa(dp1120
g3
S'8-6-3-1'
p1121
sg5
F1.4241758241758242
sa(dp1122
g3
S'8-5-2'
p1123
sg5
F1.056521739130435
sa(dp1124
g3
S'8-5-3-1'
p1125
sg5
F0.9185567010309278
sa(dp1126
g3
S'8-6-4-2'
p1127
sg5
F0.9117801047120419
sa(dp1128
g3
S'8-6-4-1'
p1129
sg5
F0.6967741935483871
sa(dp1130
g3
S'8-5-3'
p1131
sg5
F0.33749999999999997
sa(dp1132
g3
S'8-6-4-2-1'
p1133
sg5
F0.0
sa(dp1134
g3
S'8-5-3'
p1135
sg5
F1.1179750223015164
sa(dp1136
g3
S'8-6-4-2'
p1137
sg5
F0.9522963459604424
sa(dp1138
g3
S'8-6-4-1'
p1139
sg5
F0.8985007591093118
sa(dp1140
g3
S'8-5-3-1'
p1141
sg5
F0.86904514250052
sa(dp1142
g3
S'8-6-3-1'
p1143
sg5
F0.8161054929901173
sa(dp1144
g3
S'8-5-2'
p1145
sg5
F0.742798719772404
sa(dp1146
g3
S'8-6-3'
p1147
sg5
F0.5889332706766918
sa(dp1148
g3
S'8-6-4'
p1149
sg5
F0.0
sa(dp1150
g3
S'8-6-3-2'
p1151
sg5
F0.0
sa(dp1152
g3
S'8-6-4-2-1'
p1153
sg5
F0.0
sa(dp1154
g3
S'8-6-3-1'
p1155
sg5
F1.2097471264367818
sa(dp1156
g3
S'8-5-3-1'
p1157
sg5
F0.9693486590038314
sa(dp1158
g3
S'8-6-4-2'
p1159
sg5
F0.9242626748641182
sa(dp1160
g3
S'8-6-4-1'
p1161
sg5
F0.7754789272030651
sa(dp1162
g3
S'8-5-3'
p1163
sg5
F0.6646962233169129
sa(dp1164
g3
S'8-6-3'
p1165
sg5
F0.38773946360153255
sa(dp1166
g3
S'8-5-2'
p1167
sg5
F0.0
sa(dp1168
g3
S'8-6-4'
p1169
sg5
F0.0
sa(dp1170
g3
S'8-6-4-2-1'
p1171
sg5
F0.0
sa(dp1172
g3
S'8-6-4-1'
p1173
sg5
F1.1094432620141146
sa(dp1174
g3
S'8-6-4-2'
p1175
sg5
F0.9324044436076068
sa(dp1176
g3
S'8-6-3-1'
p1177
sg5
F0.8626576545188488
sa(dp1178
g3
S'8-5-2'
p1179
sg5
F0.7145055790688727
sa(dp1180
g3
S'8-5-3-1'
p1181
sg5
F0.7089016137428423
sa(dp1182
g3
S'8-5-3'
p1183
sg5
F0.6444560124934929
sa(dp1184
g3
S'8-6-3'
p1185
sg5
F0.5618334467891989
sa(dp1186
g3
S'8-6-4'
p1187
sg5
F0.0
sa(dp1188
g3
S'8-6-4-2-1'
p1189
sg5
F0.0
sa(dp1190
g3
S'8-7-5-3-1'
p1191
sg5
F0.0
sa(dp1192
g3
S'8-5-2'
p1193
sg5
F1.2065516379094774
sa(dp1194
g3
S'8-6-4-1'
p1195
sg5
F0.9635176651305684
sa(dp1196
g3
S'8-5-3-1'
p1197
sg5
F0.9566842065126209
sa(dp1198
g3
S'8-6-3-1'
p1199
sg5
F0.9355720077560373
sa(dp1200
g3
S'8-6-4-2'
p1201
sg5
F0.7554511754276899
sa(dp1202
g3
S'8-5-3'
p1203
sg5
F0.7411674347158219
sa(dp1204
g3
S'8-6-3'
p1205
sg5
F0.4323476702508961
sa(dp1206
g3
S'8-6-4-1'
p1207
sg5
F1.5295019157088123
sa(dp1208
g3
S'8-5-3-1'
p1209
sg5
F1.219891919711786
sa(dp1210
g3
S'8-6-3-1'
p1211
sg5
F1.093658679135009
sa(dp1212
g3
S'8-6-4-2'
p1213
sg5
F0.8050010082677959
sa(dp1214
g3
S'8-5-2'
p1215
sg5
F0.4916256157635468
sa(dp1216
g3
S'8-5-3'
p1217
sg5
F0.30726600985221675
sa(dp1218
g3
S'8-6-3'
p1219
sg5
F0.2530425963488844
sa(dp1220
g3
S'8-6-4-2-1'
p1221
sg5
F0.0
sa(dp1222
g3
S'8-6-3'
p1223
sg5
F1.5714285714285714
sa(dp1224
g3
S'8-6-4-1'
p1225
sg5
F1.2365731680800174
sa(dp1226
g3
S'8-5-3-1'
p1227
sg5
F1.067949554250924
sa(dp1228
g3
S'8-6-3-1'
p1229
sg5
F0.965452847805789
sa(dp1230
g3
S'8-5-2'
p1231
sg5
F0.9186211798152096
sa(dp1232
g3
S'8-6-4-2'
p1233
sg5
F0.8864195134575569
sa(dp1234
g3
S'8-5-3'
p1235
sg5
F0.2159565580618212
sa(dp1236
g3
S'8-6-4'
p1237
sg5
F0.0
sa(dp1238
g3
S'8-5-2'
p1239
sg5
F1.3899967309578294
sa(dp1240
g3
S'8-6-4-1'
p1241
sg5
F1.126457082303073
sa(dp1242
g3
S'8-5-3-1'
p1243
sg5
F0.9990601503759399
sa(dp1244
g3
S'8-6-3-1'
p1245
sg5
F0.9266644873052196
sa(dp1246
g3
S'8-6-3'
p1247
sg5
F0.9082365003417634
sa(dp1248
g3
S'8-6-4-2'
p1249
sg5
F0.8551625978526564
sa(dp1250
g3
S'8-5-3'
p1251
sg5
F0.6148062463851938
sa(dp1252
g3
S'8-6-4-2-1'
p1253
sg5
F0.0
sa(dp1254
g3
S'8-5-2'
p1255
sg5
F1.7616666666666667
sa(dp1256
g3
S'8-6-4-2'
p1257
sg5
F1.0665427509293681
sa(dp1258
g3
S'8-5-3-1'
p1259
sg5
F0.94375
sa(dp1260
g3
S'8-6-3-1'
p1261
sg5
F0.9221374045801526
sa(dp1262
g3
S'8-5-3'
p1263
sg5
F0.6494623655913979
sa(dp1264
g3
S'8-6-4-1'
p1265
sg5
F0.5872222222222222
sa(dp1266
g3
S'8-6-3'
p1267
sg5
F0.0
sa(dp1268
g3
S'8-6-4-2-1'
p1269
sg5
F0.0
sa(dp1270
g3
S'8-6-3-1'
p1271
sg5
F1.2662721893491125
sa(dp1272
g3
S'8-6-4-1'
p1273
sg5
F1.1624793869434475
sa(dp1274
g3
S'8-6-3'
p1275
sg5
F0.9233234714003944
sa(dp1276
g3
S'8-5-3-1'
p1277
sg5
F0.9124608423250957
sa(dp1278
g3
S'8-6-4-2'
p1279
sg5
F0.7963664940828401
sa(dp1280
g3
S'8-5-2'
p1281
sg5
F0.7821092934215106
sa(dp1282
g3
S'8-5-3'
p1283
sg5
F0.5627876397107167
sa(dp1284
g3
S'8-6-4'
p1285
sg5
F0.0
sa(dp1286
g3
S'8-6-4-2-1'
p1287
sg5
F0.0
sa(dp1288
g3
S'8-5-2'
p1289
sg5
F1.2234452394056137
sa(dp1290
g3
S'8-6-4-2'
p1291
sg5
F1.1724683544303798
sa(dp1292
g3
S'8-5-3-1'
p1293
sg5
F0.6919485370408799
sa(dp1294
g3
S'8-6-4-1'
p1295
sg5
F0.5359855334538879
sa(dp1296
g3
S'8-6-3-1'
p1297
sg5
F0.26799276672694394
sa(dp1298
g3
S'8-6-3'
p1299
sg5
F0.0
sa(dp1300
g3
S'8-6-4'
p1301
sg5
F0.0
sa(dp1302
g3
S'8-5-3'
p1303
sg5
F0.0
sa(dp1304
g3
S'8-5-2-1'
p1305
sg5
F0.0
sa(dp1306
g3
S'8-5-3'
p1307
sg5
F1.5788690476190477
sa(dp1308
g3
S'8-6-3'
p1309
sg5
F1.1841517857142856
sa(dp1310
g3
S'8-5-3-1'
p1311
sg5
F1.1030454990215264
sa(dp1312
g3
S'8-6-4-2'
p1313
sg5
F0.9436918445539135
sa(dp1314
g3
S'8-6-3-1'
p1315
sg5
F0.8403657834101382
sa(dp1316
g3
S'8-6-4-1'
p1317
sg5
F0.8102091165413534
sa(dp1318
g3
S'8-5-2'
p1319
sg5
F0.19735863095238093
sa(dp1320
g3
S'8-6-4-2-1'
p1321
sg5
F0.0
sa(dp1322
g3
S'8-6-3-1'
p1323
sg5
F1.0380838061981668
sa(dp1324
g3
S'8-6-4-2'
p1325
sg5
F0.9635118241483488
sa(dp1326
g3
S'8-5-2'
p1327
sg5
F0.9591651542649728
sa(dp1328
g3
S'8-5-3-1'
p1329
sg5
F0.9244127936031984
sa(dp1330
g3
S'8-6-4-1'
p1331
sg5
F0.5754990925589837
sa(dp1332
g3
S'8-5-3'
p1333
sg5
F0.4339080459770115
sa(dp1334
g3
S'8-6-3'
p1335
sg5
F0.3961769115442279
sa(dp1336
g3
S'8-6-4-2-1'
p1337
sg5
F0.0
sasI9
(lp1338
(dp1339
g3
S'9-7-4-1'
p1340
sg5
F1.3794117647058823
sa(dp1341
g3
S'9-7-5-2'
p1342
sg5
F1.3293213933618142
sa(dp1343
g3
S'9-6-4-1'
p1344
sg5
F1.1495098039215685
sa(dp1345
g3
S'9-7-5-3-1'
p1346
sg5
F0.9373519542045006
sa(dp1347
g3
S'9-6-4-2'
p1348
sg5
F0.9045323047251688
sa(dp1349
g3
S'9-6-3-1'
p1350
sg5
F0.7958144796380091
sa(dp1351
g3
S'9-7-4-2'
p1352
sg5
F0.5230915399867813
sa(dp1353
g3
S'9-7-5-3'
p1354
sg5
F0.43408062525709584
sa(dp1355
g3
S'9-6-4'
p1356
sg5
F0.0
sa(dp1357
g3
S'9-6-3'
p1358
sg5
F0.0
sa(dp1359
g3
S'9-6-4-1'
p1360
sg5
F2.6728354263053533
sa(dp1361
g3
S'9-7-4-2'
p1362
sg5
F1.6463116756228628
sa(dp1363
g3
S'9-6-3-1'
p1364
sg5
F1.2621722846441947
sa(dp1365
g3
S'9-7-5-3'
p1366
sg5
F1.2250495703899538
sa(dp1367
g3
S'9-7-4-1'
p1368
sg5
F0.946629213483146
sa(dp1369
g3
S'9-6-4-2'
p1370
sg5
F0.8311866264730063
sa(dp1371
g3
S'9-7-5-3-1'
p1372
sg5
F0.709180414114464
sa(dp1373
g3
S'9-7-5-2'
p1374
sg5
F0.5890137328339575
sa(dp1375
g3
S'9-6-3'
p1376
sg5
F0.0
sa(dp1377
g3
S'9-7-5-3-1'
p1378
sg5
F1.0443427298266008
sa(dp1379
g3
S'9-7-5-2'
p1380
sg5
F1.0411707043831395
sa(dp1381
g3
S'9-7-4-2'
p1382
sg5
F0.964134589134589
sa(dp1383
g3
S'9-6-4-2'
p1384
sg5
F0.9042567567567569
sa(dp1385
g3
S'9-7-4-1'
p1386
sg5
F0.7009742300439975
sa(dp1387
g3
S'9-6-3-1'
p1388
sg5
F0.5687149413564508
sa(dp1389
g3
S'9-6-3'
p1390
sg5
F0.5581831831831833
sa(dp1391
g3
S'9-6-4-1'
p1392
sg5
F0.3966038406827881
sa(dp1393
g3
S'9-7-5-3'
p1394
sg5
F0.27909159159159164
sa(dp1395
g3
S'9-8-6-4-1'
p1396
sg5
F0.0
sa(dp1397
g3
S'9-6-4-2-1'
p1398
sg5
F0.0
sa(dp1399
g3
S'9-7-4'
p1400
sg5
F0.0
sa(dp1401
g3
S'9-7-4-1'
p1402
sg5
F2.493939393939394
sa(dp1403
g3
S'9-6-4-2'
p1404
sg5
F1.1853909465020576
sa(dp1405
g3
S'9-7-5-3-1'
p1406
sg5
F1.0352201257861635
sa(dp1407
g3
S'9-6-3-1'
p1408
sg5
F0.9625730994152046
sa(dp1409
g3
S'9-7-4-2'
p1410
sg5
F0.9525462962962963
sa(dp1411
g3
S'9-7-5-3'
p1412
sg5
F0.6531746031746032
sa(dp1413
g3
S'9-7-5-2'
p1414
sg5
F0.5326860841423947
sa(dp1415
g3
S'9-6-4-1'
p1416
sg5
F0.33868312757201646
sa(dp1417
g3
S'9-6-3'
p1418
sg5
F0.0
sa(dp1419
g3
S'9-8-6-4-1'
p1420
sg5
F0.0
sa(dp1421
g3
S'9-6-3-1'
p1422
sg5
F1.963852665293983
sa(dp1423
g3
S'9-7-4-1'
p1424
sg5
F1.3658847063102382
sa(dp1425
g3
S'9-7-4-2'
p1426
sg5
F1.049645390070922
sa(dp1427
g3
S'9-6-3'
p1428
sg5
F0.9512411347517731
sa(dp1429
g3
S'9-7-5-3-1'
p1430
sg5
F0.9369008161374247
sa(dp1431
g3
S'9-6-4-2'
p1432
sg5
F0.913191489361702
sa(dp1433
g3
S'9-7-5-2'
p1434
sg5
F0.8339648304673078
sa(dp1435
g3
S'9-6-4-1'
p1436
sg5
F0.7927009456264775
sa(dp1437
g3
S'9-7-5-3'
p1438
sg5
F0.5798041202296521
sa(dp1439
g3
S'9-8-6-4-1'
p1440
sg5
F0.0
sa(dp1441
g3
S'9-7-4-1'
p1442
sg5
F2.4320754716981132
sa(dp1443
g3
S'9-7-5-2'
p1444
sg5
F1.0327284380883708
sa(dp1445
g3
S'9-7-4-2'
p1446
sg5
F0.9926838659992299
sa(dp1447
g3
S'9-6-3-1'
p1448
sg5
F0.9886485657309404
sa(dp1449
g3
S'9-7-5-3'
p1450
sg5
F0.965109314165918
sa(dp1451
g3
S'9-7-5-3-1'
p1452
sg5
F0.8852381985108074
sa(dp1453
g3
S'9-6-3'
p1454
sg5
F0.6755765199161426
sa(dp1455
g3
S'9-6-4-2'
p1456
sg5
F0.6400198609731877
sa(dp1457
g3
S'9-6-4-1'
p1458
sg5
F0.6118428859617895
sa(dp1459
g3
S'9-7-4'
p1460
sg5
F0.0
sa(dp1461
g3
S'9-6-4-1'
p1462
sg5
F2.022222222222222
sa(dp1463
g3
S'9-7-4-1'
p1464
sg5
F1.5872093023255816
sa(dp1465
g3
S'9-7-4-2'
p1466
sg5
F1.2638888888888888
sa(dp1467
g3
S'9-7-5-2'
p1468
sg5
F0.9710365853658538
sa(dp1469
g3
S'9-7-5-3-1'
p1470
sg5
F0.8218930635838151
sa(dp1471
g3
S'9-6-4-2'
p1472
sg5
F0.7583333333333333
sa(dp1473
g3
S'9-7-5-3'
p1474
sg5
F0.56875
sa(dp1475
g3
S'9-6-3-1'
p1476
sg5
F0.455
sa(dp1477
g3
S'9-8-5-3-1'
p1478
sg5
F0.0
sa(dp1479
g3
S'9-7-4-2-1'
p1480
sg5
F0.0
sa(dp1481
g3
S'9-6-3'
p1482
sg5
F0.0
sa(dp1483
g3
S'9-6-4-2-1'
p1484
sg5
F0.0
sa(dp1485
g3
S'9-7-5-2-1'
p1486
sg5
F0.0
sa(dp1487
g3
S'9-7-5-2'
p1488
sg5
F1.4419014084507042
sa(dp1489
g3
S'9-7-4-2'
p1490
sg5
F1.2717391304347825
sa(dp1491
g3
S'9-7-5-3-1'
p1492
sg5
F0.8924704724409449
sa(dp1493
g3
S'9-7-5-3'
p1494
sg5
F0.7834821428571428
sa(dp1495
g3
S'9-6-4-2'
p1496
sg5
F0.7697368421052632
sa(dp1497
g3
S'9-6-4-1'
p1498
sg5
F0.33238636363636365
sa(dp1499
g3
S'9-6-3'
p1500
sg5
F0.0
sa(dp1501
g3
S'9-6-3-1'
p1502
sg5
F0.0
sa(dp1503
g3
S'9-7-4-1'
p1504
sg5
F0.0
sa(dp1505
g3
S'9-7-4-1'
p1506
sg5
F2.0727272727272728
sa(dp1507
g3
S'9-6-3'
p1508
sg5
F1.2436363636363637
sa(dp1509
g3
S'9-7-5-2'
p1510
sg5
F1.1568710359408034
sa(dp1511
g3
S'9-7-4-2'
p1512
sg5
F1.0933066933066933
sa(dp1513
g3
S'9-7-5-3-1'
p1514
sg5
F0.8423035132198479
sa(dp1515
g3
S'9-6-3-1'
p1516
sg5
F0.7614100185528757
sa(dp1517
g3
S'9-7-5-3'
p1518
sg5
F0.6401069518716577
sa(dp1519
g3
S'9-6-4-2'
p1520
sg5
F0.6392523364485981
sa(dp1521
g3
S'9-6-4-1'
p1522
sg5
F0.4522314049586777
sa(dp1523
g3
S'9-6-4-2-1'
p1524
sg5
F0.0
sa(dp1525
g3
S'9-7-4'
p1526
sg5
F0.0
sa(dp1527
g3
S'9-7-5-2-1'
p1528
sg5
F0.0
sa(dp1529
g3
S'9-7-4-2'
p1530
sg5
F1.0232558139534884
sa(dp1531
g3
S'9-7-5-2'
p1532
sg5
F1.0111223458038423
sa(dp1533
g3
S'9-7-5-3-1'
p1534
sg5
F0.9593023255813954
sa(dp1535
g3
S'9-7-4-1'
p1536
sg5
F0.9302325581395349
sa(dp1537
g3
S'9-6-4-2'
p1538
sg5
F0.7408931878987447
sa(dp1539
g3
S'9-6-4-1'
p1540
sg5
F0.6890611541774332
sa(dp1541
g3
S'9-7-5-3'
p1542
sg5
F0.6001500375093773
sa(dp1543
g3
S'9-7-4-2-1'
p1544
sg5
F0.0
sa(dp1545
g3
S'9-6-3'
p1546
sg5
F0.0
sa(dp1547
g3
S'9-6-3-1'
p1548
sg5
F0.0
sa(dp1549
g3
S'9-6-3'
p1550
sg5
F3.78252427184466
sa(dp1551
g3
S'9-6-4-2'
p1552
sg5
F1.1482662968099862
sa(dp1553
g3
S'9-7-4-1'
p1554
sg5
F1.0131761442441054
sa(dp1555
g3
S'9-7-4-2'
p1556
sg5
F0.9270892823148676
sa(dp1557
g3
S'9-6-3-1'
p1558
sg5
F0.9151268399624178
sa(dp1559
g3
S'9-7-5-3-1'
p1560
sg5
F0.8916620491941507
sa(dp1561
g3
S'9-6-4-1'
p1562
sg5
F0.7880258899676374
sa(dp1563
g3
S'9-7-5-3'
p1564
sg5
F0.7465508431272356
sa(dp1565
g3
S'9-7-5-2'
p1566
sg5
F0.6754507628294036
sa(dp1567
g3
S'9-7-4'
p1568
sg5
F0.0
sa(dp1569
g3
S'9-7-4-2'
p1570
sg5
F1.421151439299124
sa(dp1571
g3
S'9-7-5-2'
p1572
sg5
F1.25941770647653
sa(dp1573
g3
S'9-6-4-2'
p1574
sg5
F1.1762486126526082
sa(dp1575
g3
S'9-7-4-1'
p1576
sg5
F1.047750865051903
sa(dp1577
g3
S'9-7-5-3'
p1578
sg5
F0.954201680672269
sa(dp1579
g3
S'9-7-5-3-1'
p1580
sg5
F0.7984584178498986
sa(dp1581
g3
S'9-6-3-1'
p1582
sg5
F0.5566176470588236
sa(dp1583
g3
S'9-6-3'
p1584
sg5
F0.0
sa(dp1585
g3
S'9-6-4-2-1'
p1586
sg5
F0.0
sa(dp1587
g3
S'9-7-4'
p1588
sg5
F0.0
sa(dp1589
g3
S'9-7-5-2-1'
p1590
sg5
F0.0
sa(dp1591
g3
S'9-6-4-1'
p1592
sg5
F0.0
sa(dp1593
g3
S'9-6-3'
p1594
sg5
F3.9450000000000003
sa(dp1595
g3
S'9-6-4-1'
p1596
sg5
F1.502857142857143
sa(dp1597
g3
S'9-7-5-3-1'
p1598
sg5
F1.2119435736677115
sa(dp1599
g3
S'9-7-4-1'
p1600
sg5
F1.1688888888888889
sa(dp1601
g3
S'9-7-5-2'
p1602
sg5
F0.8508823529411765
sa(dp1603
g3
S'9-7-4-2'
p1604
sg5
F0.7635483870967742
sa(dp1605
g3
S'9-6-3-1'
p1606
sg5
F0.7172727272727273
sa(dp1607
g3
S'9-6-4-2'
p1608
sg5
F0.5536842105263159
sa(dp1609
g3
S'9-7-5-3'
p1610
sg5
F0.08965909090909091
sa(dp1611
g3
S'9-7-4-2-1'
p1612
sg5
F0.0
sa(dp1613
g3
S'9-6-3'
p1614
sg5
F2.2963636363636364
sa(dp1615
g3
S'9-6-3-1'
p1616
sg5
F1.472027972027972
sa(dp1617
g3
S'9-7-5-2'
p1618
sg5
F1.102773497688752
sa(dp1619
g3
S'9-7-5-3-1'
p1620
sg5
F1.09587852494577
sa(dp1621
g3
S'9-7-4-2'
p1622
sg5
F1.0501662971175165
sa(dp1623
g3
S'9-6-4-1'
p1624
sg5
F0.9771760154738879
sa(dp1625
g3
S'9-7-4-1'
p1626
sg5
F0.6561038961038961
sa(dp1627
g3
S'9-6-4-2'
p1628
sg5
F0.5555718475073315
sa(dp1629
g3
S'9-7-5-3'
p1630
sg5
F0.47840909090909084
sa(dp1631
g3
S'9-6-3-1'
p1632
sg5
F2.942176870748299
sa(dp1633
g3
S'9-7-4-1'
p1634
sg5
F1.5131195335276968
sa(dp1635
g3
S'9-7-5-2'
p1636
sg5
F1.2609329446064141
sa(dp1637
g3
S'9-6-4-1'
p1638
sg5
F1.103316326530612
sa(dp1639
g3
S'9-7-4-2'
p1640
sg5
F0.8592197941123353
sa(dp1641
g3
S'9-7-5-3-1'
p1642
sg5
F0.7524255603880897
sa(dp1643
g3
S'9-6-4-2'
p1644
sg5
F0.6396036675539781
sa(dp1645
g3
S'9-7-5-3'
p1646
sg5
F0.4903628117913832
sa(dp1647
g3
S'9-6-3'
p1648
sg5
F0.0
sa(dp1649
g3
S'9-7-5-2-1'
p1650
sg5
F0.0
sa(dp1651
g3
S'9-7-4-2'
p1652
sg5
F1.4205974842767297
sa(dp1653
g3
S'9-7-5-3'
p1654
sg5
F1.3627450980392155
sa(dp1655
g3
S'9-7-5-2'
p1656
sg5
F0.945578231292517
sa(dp1657
g3
S'9-7-5-3-1'
p1658
sg5
F0.9346781940441883
sa(dp1659
g3
S'9-7-4-1'
p1660
sg5
F0.891025641025641
sa(dp1661
g3
S'9-6-4-2'
p1662
sg5
F0.6237179487179487
sa(dp1663
g3
S'9-6-3-1'
p1664
sg5
F0.5515873015873015
sa(dp1665
g3
S'9-6-4-1'
p1666
sg5
F0.41369047619047616
sa(dp1667
g3
S'9-7-4-2-1'
p1668
sg5
F0.0
sa(dp1669
g3
S'9-6-3'
p1670
sg5
F0.0
sa(dp1671
g3
S'9-7-4-1'
p1672
sg5
F1.865705788149165
sa(dp1673
g3
S'9-7-5-2'
p1674
sg5
F1.4164133738601823
sa(dp1675
g3
S'9-6-4-1'
p1676
sg5
F1.1122476813966176
sa(dp1677
g3
S'9-6-3-1'
p1678
sg5
F0.8606678486997636
sa(dp1679
g3
S'9-7-5-3-1'
p1680
sg5
F0.8384688048220952
sa(dp1681
g3
S'9-7-4-2'
p1682
sg5
F0.768596404420254
sa(dp1683
g3
S'9-7-5-3'
p1684
sg5
F0.7573877068557919
sa(dp1685
g3
S'9-6-4-2'
p1686
sg5
F0.7511283043197937
sa(dp1687
g3
S'9-6-3'
p1688
sg5
F0.0
sa(dp1689
g3
S'9-6-3-1'
p1690
sg5
F2.1021634615384617
sa(dp1691
g3
S'9-7-4-2'
p1692
sg5
F1.5379464285714286
sa(dp1693
g3
S'9-6-4-2'
p1694
sg5
F1.0823019801980198
sa(dp1695
g3
S'9-7-5-3-1'
p1696
sg5
F1.0543258101851851
sa(dp1697
g3
S'9-7-5-2'
p1698
sg5
F0.7164676966292135
sa(dp1699
g3
S'9-7-5-3'
p1700
sg5
F0.0
sa(dp1701
g3
S'9-7-4-1'
p1702
sg5
F0.0
sa(dp1703
g3
S'9-6-3'
p1704
sg5
F0.0
sa(dp1705
g3
S'9-6-4-1'
p1706
sg5
F0.0
sa(dp1707
g3
S'9-7-4-1'
p1708
sg5
F2.1303092783505155
sa(dp1709
g3
S'9-6-4-2'
p1710
sg5
F1.36558287073751
sa(dp1711
g3
S'9-7-5-2'
p1712
sg5
F1.1283417787873493
sa(dp1713
g3
S'9-7-4-2'
p1714
sg5
F0.9763917525773196
sa(dp1715
g3
S'9-6-4-1'
p1716
sg5
F0.9510309278350515
sa(dp1717
g3
S'9-6-3-1'
p1718
sg5
F0.9182367579097049
sa(dp1719
g3
S'9-7-5-3'
p1720
sg5
F0.8876288659793814
sa(dp1721
g3
S'9-7-5-3-1'
p1722
sg5
F0.634020618556701
sa(dp1723
g3
S'9-6-3'
p1724
sg5
F0.0
sa(dp1725
g3
S'9-6-3'
p1726
sg5
F5.562289562289562
sa(dp1727
g3
S'9-6-4-1'
p1728
sg5
F1.9254079254079253
sa(dp1729
g3
S'9-7-5-3-1'
p1730
sg5
F1.0632022165499486
sa(dp1731
g3
S'9-7-5-3'
p1732
sg5
F0.9815805109922757
sa(dp1733
g3
S'9-7-5-2'
p1734
sg5
F0.7892437892437891
sa(dp1735
g3
S'9-7-4-2'
p1736
sg5
F0.6838880609372413
sa(dp1737
g3
S'9-6-3-1'
p1738
sg5
F0.6418026418026418
sa(dp1739
g3
S'9-7-4-1'
p1740
sg5
F0.39730639730639733
sa(dp1741
g3
S'9-6-4-2'
p1742
sg5
F0.2254982254982255
sa(dp1743
g3
S'9-7-4-2-1'
p1744
sg5
F0.0
sas.