(dp0
I2
(lp1
(dp2
S'pattern'
p3
S'2'
p4
sS'oe'
p5
F0.9573584905660378
sa(dp6
g3
S'2-1'
p7
sg5
F0.0
sa(dp8
g3
S'2'
p9
sg5
F0.9917707550713749
sa(dp10
g3
S'2-1'
p11
sg5
F0.0
sa(dp12
g3
S'2'
p13
sg5
F0.9848484848484849
sa(dp14
g3
S'2'
p15
sg5
F0.9688529723120965
sa(dp16
g3
S'2-1'
p17
sg5
F0.0
sa(dp18
g3
S'2'
p19
sg5
F0.98170866489832
sa(dp20
g3
S'2-1'
p21
sg5
F0.0
sa(dp22
g3
S'2'
p23
sg5
F0.9714285714285714
sa(dp24
g3
S'2'
p25
sg5
F0.9824268522274576
sa(dp26
g3
S'2-1'
p27
sg5
F0.0
sa(dp28
g3
S'2'
p29
sg5
F0.9861418873764554
sa(dp30
g3
S'2-1'
p31
sg5
F0.0
sa(dp32
g3
S'1'
p33
sg5
F42.20338983050847
sa(dp34
g3
S'2'
p35
sg5
F0.9389912785914102
sa(dp36
g3
S'2-1'
p37
sg5
F0.0
sa(dp38
g3
S'2'
p39
sg5
F0.9672506655110505
sa(dp40
g3
S'2-1'
p41
sg5
F0.0
sasI3
(lp42
(dp43
g3
S'3-1'
p44
sg5
F0.9965517241379311
sa(dp45
g3
S'3'
p46
sg5
F0.9147093120106614
sa(dp47
g3
S'3-2'
p48
sg5
F0.0
sa(dp49
g3
S'3-1'
p50
sg5
F1.0654549259353372
sa(dp51
g3
S'3'
p52
sg5
F0.711888782358581
sa(dp53
g3
S'3-2'
p54
sg5
F0.0
sa(dp55
g3
S'3'
p56
sg5
F1.2254610350981558
sa(dp57
g3
S'3-1'
p58
sg5
F0.736996017919363
sa(dp59
g3
S'2'
p60
sg5
F12.045454545454545
sa(dp61
g3
S'3-2'
p62
sg5
F1.6060606060606062
sa(dp63
g3
S'3-1'
p64
sg5
F1.076555023923445
sa(dp65
g3
S'3'
p66
sg5
F0.640289942615524
sa(dp67
g3
S'2'
p68
sg5
F57.08333333333333
sa(dp69
g3
S'3-1'
p70
sg5
F0.9834006280843426
sa(dp71
g3
S'3'
p72
sg5
F0.8002336448598131
sa(dp73
g3
S'3-2'
p74
sg5
F0.0
sa(dp75
g3
S'3'
p76
sg5
F1.1099999999999999
sa(dp77
g3
S'3-1'
p78
sg5
F0.8851674641148325
sa(dp79
g3
S'3'
p80
sg5
F0.9846882122611186
sa(dp81
g3
S'3-1'
p82
sg5
F0.9637673368455004
sa(dp83
g3
S'3-2'
p84
sg5
F0.0
sa(dp85
g3
S'3-1'
p86
sg5
F1.0681845780206436
sa(dp87
g3
S'3'
p88
sg5
F0.7077826725403817
sa(dp89
g3
S'3-2'
p90
sg5
F0.0
sa(dp91
g3
S'3-2'
p92
sg5
F7.065126050420168
sa(dp93
g3
S'3-1'
p94
sg5
F0.9576303449556619
sa(dp95
g3
S'3'
p96
sg5
F0.8886951006817821
sa(dp97
g3
S'2'
p98
sg5
F64.85106382978724
sa(dp99
g3
S'3'
p100
sg5
F1.0907671286355651
sa(dp101
g3
S'3-1'
p102
sg5
F0.8167640280829627
sa(dp103
g3
S'3-2'
p104
sg5
F0.0
sasI4
(lp105
(dp106
g3
S'4-2'
p107
sg5
F0.9778024417314095
sa(dp108
g3
S'4-1'
p109
sg5
F0.9628415300546449
sa(dp110
g3
S'4-2-1'
p111
sg5
F0.0
sa(dp112
g3
S'4-3-1'
p113
sg5
F0.0
sa(dp114
g3
S'4'
p115
sg5
F0.0
sa(dp116
g3
S'4-3'
p117
sg5
F0.0
sa(dp118
g3
S'4-3-1'
p119
sg5
F1.5434782608695652
sa(dp120
g3
S'4-1'
p121
sg5
F1.2062477164778955
sa(dp122
g3
S'4-2'
p123
sg5
F0.9191930089545798
sa(dp124
g3
S'4-2-1'
p125
sg5
F0.0
sa(dp126
g3
S'4'
p127
sg5
F0.0
sa(dp128
g3
S'4-3'
p129
sg5
F0.0
sa(dp130
g3
S'4-2'
p131
sg5
F1.1023809523809525
sa(dp132
g3
S'4-1'
p133
sg5
F0.6951951951951951
sa(dp134
g3
S'4'
p135
sg5
F0.0
sa(dp136
g3
S'4-2'
p137
sg5
F1.0322972738322627
sa(dp138
g3
S'4-1'
p139
sg5
F0.7739053254437871
sa(dp140
g3
S'4-2-1'
p141
sg5
F0.0
sa(dp142
g3
S'4-3-1'
p143
sg5
F0.0
sa(dp144
g3
S'4'
p145
sg5
F0.0
sa(dp146
g3
S'4-3'
p147
sg5
F0.0
sa(dp148
g3
S'4-2'
p149
sg5
F1.0031877315413114
sa(dp150
g3
S'4-1'
p151
sg5
F0.9026334375945919
sa(dp152
g3
S'4-2-1'
p153
sg5
F0.0
sa(dp154
g3
S'4-3'
p155
sg5
F0.0
sa(dp156
g3
S'4'
p157
sg5
F0.0
sa(dp158
g3
S'4-2'
p159
sg5
F1.1574193548387097
sa(dp160
g3
S'4-1'
p161
sg5
F0.3982978723404255
sa(dp162
g3
S'4'
p163
sg5
F0.0
sa(dp164
g3
S'4-2'
p165
sg5
F1.0330476330182947
sa(dp166
g3
S'4-1'
p167
sg5
F0.8508699254349628
sa(dp168
g3
S'4-2-1'
p169
sg5
F0.0
sa(dp170
g3
S'4-3-1'
p171
sg5
F0.0
sa(dp172
g3
S'4'
p173
sg5
F0.0
sa(dp174
g3
S'4-3'
p175
sg5
F0.0
sa(dp176
g3
S'4-2'
p177
sg5
F1.053740340030912
sa(dp178
g3
S'4-1'
p179
sg5
F0.7885279187817259
sa(dp180
g3
S'4-2-1'
p181
sg5
F0.0
sa(dp182
g3
S'4-3-1'
p183
sg5
F0.0
sa(dp184
g3
S'4'
p185
sg5
F0.0
sa(dp186
g3
S'4-3'
p187
sg5
F0.0
sa(dp188
g3
S'3-1'
p189
sg5
F33.7
sa(dp190
g3
S'4-3-1'
p191
sg5
F4.814285714285715
sa(dp192
g3
S'4-2'
p193
sg5
F1.0059701492537314
sa(dp194
g3
S'4-1'
p195
sg5
F0.6081203007518796
sa(dp196
g3
S'4-2-1'
p197
sg5
F0.0
sa(dp198
g3
S'4'
p199
sg5
F0.0
sa(dp200
g3
S'4-3'
p201
sg5
F0.0
sa(dp202
g3
S'4-2'
p203
sg5
F1.1191836734693876
sa(dp204
g3
S'4-1'
p205
sg5
F0.3693675489997979
sa(dp206
g3
S'4-2-1'
p207
sg5
F0.0
sa(dp208
g3
S'4-3-1'
p209
sg5
F0.0
sa(dp210
g3
S'4'
p211
sg5
F0.0
sasI5
(lp212
(dp213
g3
S'5-1'
p214
sg5
F2.25
sa(dp215
g3
S'5-2'
p216
sg5
F1.049079754601227
sa(dp217
g3
S'5-3-1'
p218
sg5
F0.965587044534413
sa(dp219
g3
S'5-3'
p220
sg5
F0.9212598425196851
sa(dp221
g3
S'5-4-2'
p222
sg5
F0.0
sa(dp223
g3
S'5-3-2'
p224
sg5
F0.0
sa(dp225
g3
S'5-4-1'
p226
sg5
F0.0
sa(dp227
g3
S'5-1'
p228
sg5
F1.4609375
sa(dp229
g3
S'5-3-1'
p230
sg5
F1.1165544429097607
sa(dp231
g3
S'5-3'
p232
sg5
F0.8374800955414013
sa(dp233
g3
S'5-2'
p234
sg5
F0.7616261848341231
sa(dp235
g3
S'5-4-2'
p236
sg5
F0.0
sa(dp237
g3
S'5'
p238
sg5
F0.0
sa(dp239
g3
S'5-3-2'
p240
sg5
F0.0
sa(dp241
g3
S'5-4-1'
p242
sg5
F0.0
sa(dp243
g3
S'5-2-1'
p244
sg5
F0.0
sa(dp245
g3
S'5-2'
p246
sg5
F1.5574534161490683
sa(dp247
g3
S'5-3'
p248
sg5
F1.0993788819875778
sa(dp249
g3
S'5-3-1'
p250
sg5
F0.5731428571428572
sa(dp251
g3
S'5-1'
p252
sg5
F0.0
sa(dp253
g3
S'4-2'
p254
sg5
F22.86315789473684
sa(dp255
g3
S'5-3-1'
p256
sg5
F1.1322011098032623
sa(dp257
g3
S'5-2'
p258
sg5
F1.0701903695408734
sa(dp259
g3
S'5-3'
p260
sg5
F0.5747721258453397
sa(dp261
g3
S'5-4-2'
p262
sg5
F0.0
sa(dp263
g3
S'5-4'
p264
sg5
F0.0
sa(dp265
g3
S'5-3-2'
p266
sg5
F0.0
sa(dp267
g3
S'5-4-1'
p268
sg5
F0.0
sa(dp269
g3
S'5-2-1'
p270
sg5
F0.0
sa(dp271
g3
S'5-1'
p272
sg5
F0.0
sa(dp273
g3
S'4-2'
p274
sg5
F38.02469135802469
sa(dp275
g3
S'5-3-1'
p276
sg5
F1.0104175035483784
sa(dp277
g3
S'5-2'
p278
sg5
F0.8946986201888163
sa(dp279
g3
S'5-3'
p280
sg5
F0.8774928774928774
sa(dp281
g3
S'5-3-2'
p282
sg5
F0.0
sa(dp283
g3
S'5-4-1'
p284
sg5
F0.0
sa(dp285
g3
S'5-1'
p286
sg5
F0.0
sa(dp287
g3
S'5-2'
p288
sg5
F1.4681440443213296
sa(dp289
g3
S'5-3'
p290
sg5
F1.3389473684210524
sa(dp291
g3
S'5-3-1'
p292
sg5
F0.6785206258890469
sa(dp293
g3
S'5-1'
p294
sg5
F0.0
sa(dp295
g3
S'5-3'
p296
sg5
F1.0596341173675456
sa(dp297
g3
S'5-3-1'
p298
sg5
F0.9582364540718722
sa(dp299
g3
S'5-2'
p300
sg5
F0.8647981667548035
sa(dp301
g3
S'5'
p302
sg5
F0.0
sa(dp303
g3
S'5-3-2'
p304
sg5
F0.0
sa(dp305
g3
S'5-4-1'
p306
sg5
F0.0
sa(dp307
g3
S'5-1'
p308
sg5
F0.0
sa(dp309
g3
S'5-2'
p310
sg5
F1.1269439421338157
sa(dp311
g3
S'5-3-1'
p312
sg5
F1.0147537733978986
sa(dp313
g3
S'5-3'
p314
sg5
F0.7860025683360851
sa(dp315
g3
S'5-4-2'
p316
sg5
F0.0
sa(dp317
g3
S'5'
p318
sg5
F0.0
sa(dp319
g3
S'5-3-2'
p320
sg5
F0.0
sa(dp321
g3
S'5-4-1'
p322
sg5
F0.0
sa(dp323
g3
S'5-1'
p324
sg5
F0.0
sa(dp325
g3
S'5-3-2'
p326
sg5
F3.0303030303030303
sa(dp327
g3
S'5-3-1'
p328
sg5
F1.0592885375494072
sa(dp329
g3
S'5-3'
p330
sg5
F0.8563899868247696
sa(dp331
g3
S'5-2'
p332
sg5
F0.7399577167019027
sa(dp333
g3
S'5-4-2'
p334
sg5
F0.0
sa(dp335
g3
S'5-2-1'
p336
sg5
F0.0
sa(dp337
g3
S'5-4-1'
p338
sg5
F0.0
sa(dp339
g3
S'5-1'
p340
sg5
F0.0
sa(dp341
g3
S'4-2'
p342
sg5
F61.32352941176471
sa(dp343
g3
S'5-3'
p344
sg5
F1.1321266968325792
sa(dp345
g3
S'5-3-1'
p346
sg5
F0.9358610914245217
sa(dp347
g3
S'5-2'
p348
sg5
F0.5110294117647058
sa(dp349
g3
S'5-4-2'
p350
sg5
F0.0
sa(dp351
g3
S'5-3-2'
p352
sg5
F0.0
sa(dp353
g3
S'5'
p354
sg5
F0.0
sa(dp355
g3
S'5-1'
p356
sg5
F0.0
sasI6
(lp357
(dp358
g3
S'6-3'
p359
sg5
F1.3725868725868726
sa(dp360
g3
S'6-4-1'
p361
sg5
F1.1252739225712198
sa(dp362
g3
S'6-3-1'
p363
sg5
F0.9770957398076043
sa(dp364
g3
S'6-4-2'
p365
sg5
F0.9129876482817658
sa(dp366
g3
S'6-4'
p367
sg5
F0.0
sa(dp368
g3
S'6-2'
p369
sg5
F0.0
sa(dp370
g3
S'6-5-2'
p371
sg5
F0.0
sa(dp372
g3
S'6-4-2-1'
p373
sg5
F0.0
sa(dp374
g3
S'6-5-3'
p375
sg5
F0.0
sa(dp376
g3
S'6-4-3'
p377
sg5
F0.0
sa(dp378
g3
S'6-4-3-1'
p379
sg5
F0.0
sa(dp380
g3
S'6-4-3-1'
p381
sg5
F7.89423076923077
sa(dp382
g3
S'6-4-1'
p383
sg5
F1.5788461538461538
sa(dp384
g3
S'6-3-1'
p385
sg5
F0.9799734748010609
sa(dp386
g3
S'6-4-2'
p387
sg5
F0.8862545977930594
sa(dp388
g3
S'6-3'
p389
sg5
F0.8096646942800789
sa(dp390
g3
S'6-4'
p391
sg5
F0.0
sa(dp392
g3
S'6-2'
p393
sg5
F0.0
sa(dp394
g3
S'6-5-2'
p395
sg5
F0.0
sa(dp396
g3
S'6-4-2-1'
p397
sg5
F0.0
sa(dp398
g3
S'6-1'
p399
sg5
F0.0
sa(dp400
g3
S'6-5-3'
p401
sg5
F0.0
sa(dp402
g3
S'6-4-3'
p403
sg5
F0.0
sa(dp404
g3
S'6-5-3-1'
p405
sg5
F0.0
sa(dp406
g3
S'6-3-2'
p407
sg5
F0.0
sa(dp408
g3
S'6-4-2'
p409
sg5
F1.2594805194805196
sa(dp410
g3
S'6-3'
p411
sg5
F1.0657142857142856
sa(dp412
g3
S'6-4-1'
p413
sg5
F0.6660714285714285
sa(dp414
g3
S'6-3-1'
p415
sg5
F0.3229437229437229
sa(dp416
g3
S'6-4'
p417
sg5
F0.0
sa(dp418
g3
S'6-2'
p419
sg5
F0.0
sa(dp420
g3
S'6-4-2'
p421
sg5
F1.0961365678346808
sa(dp422
g3
S'6-4-1'
p423
sg5
F0.9821383647798742
sa(dp424
g3
S'6-3'
p425
sg5
F0.800656275635767
sa(dp426
g3
S'6-3-1'
p427
sg5
F0.7538342712126228
sa(dp428
g3
S'6-4'
p429
sg5
F0.0
sa(dp430
g3
S'6-2'
p431
sg5
F0.0
sa(dp432
g3
S'6-5-2'
p433
sg5
F0.0
sa(dp434
g3
S'6-4-3'
p435
sg5
F0.0
sa(dp436
g3
S'6-4-2-1'
p437
sg5
F0.0
sa(dp438
g3
S'6-5-3'
p439
sg5
F0.0
sa(dp440
g3
S'6-5-1'
p441
sg5
F0.0
sa(dp442
g3
S'6-5-3-1'
p443
sg5
F0.0
sa(dp444
g3
S'6-3-2'
p445
sg5
F0.0
sa(dp446
g3
S'6-4-3-1'
p447
sg5
F0.0
sa(dp448
g3
S'6-4-2'
p449
sg5
F1.1062359550561798
sa(dp450
g3
S'6-4-1'
p451
sg5
F1.0217696629213484
sa(dp452
g3
S'6-3-1'
p453
sg5
F0.6253453674709891
sa(dp454
g3
S'6-3'
p455
sg5
F0.4487772637144745
sa(dp456
g3
S'6-4'
p457
sg5
F0.0
sa(dp458
g3
S'6-2'
p459
sg5
F0.0
sa(dp460
g3
S'6-5-2'
p461
sg5
F0.0
sa(dp462
g3
S'6-4-3'
p463
sg5
F0.0
sa(dp464
g3
S'6-4-2'
p465
sg5
F1.259340659340659
sa(dp466
g3
S'6-4-1'
p467
sg5
F0.7908902691511387
sa(dp468
g3
S'6-3-1'
p469
sg5
F0.30317460317460315
sa(dp470
g3
S'6-2'
p471
sg5
F0.0
sa(dp472
g3
S'6-3'
p473
sg5
F0.0
sa(dp474
g3
S'6-3'
p475
sg5
F1.3366336633663367
sa(dp476
g3
S'6-4-1'
p477
sg5
F1.0423496131125718
sa(dp478
g3
S'6-3-1'
p479
sg5
F0.9909178887813594
sa(dp480
g3
S'6-4-2'
p481
sg5
F0.9750535878330101
sa(dp482
g3
S'6-4'
p483
sg5
F0.0
sa(dp484
g3
S'6-2'
p485
sg5
F0.0
sa(dp486
g3
S'6-5-2'
p487
sg5
F0.0
sa(dp488
g3
S'6-4-2-1'
p489
sg5
F0.0
sa(dp490
g3
S'6-1'
p491
sg5
F0.0
sa(dp492
g3
S'6-4-3'
p493
sg5
F0.0
sa(dp494
g3
S'6-4-3-1'
p495
sg5
F0.0
sa(dp496
g3
S'6-4-2'
p497
sg5
F1.1955211024978465
sa(dp498
g3
S'6-4-1'
p499
sg5
F0.8155982905982906
sa(dp500
g3
S'6-3'
p501
sg5
F0.7850678733031675
sa(dp502
g3
S'6-3-1'
p503
sg5
F0.7233687721492599
sa(dp504
g3
S'6-4'
p505
sg5
F0.0
sa(dp506
g3
S'6-2'
p507
sg5
F0.0
sa(dp508
g3
S'6-5-2'
p509
sg5
F0.0
sa(dp510
g3
S'6-4-2-1'
p511
sg5
F0.0
sa(dp512
g3
S'6-1'
p513
sg5
F0.0
sa(dp514
g3
S'6-4-3'
p515
sg5
F0.0
sa(dp516
g3
S'6-5-3-1'
p517
sg5
F0.0
sa(dp518
g3
S'6-4-3-1'
p519
sg5
F0.0
sa(dp520
g3
S'5-3-1'
p521
sg5
F25.294736842105262
sa(dp522
g3
S'6-3-2'
p523
sg5
F8.43157894736842
sa(dp524
g3
S'6-4-3-1'
p525
sg5
F8.43157894736842
sa(dp526
g3
S'6-3'
p527
sg5
F1.0539473684210527
sa(dp528
g3
S'6-4-2'
p529
sg5
F0.9889923616197552
sa(dp530
g3
S'6-3-1'
p531
sg5
F0.9150550795593634
sa(dp532
g3
S'6-4-1'
p533
sg5
F0.548395378690629
sa(dp534
g3
S'6-4'
p535
sg5
F0.0
sa(dp536
g3
S'6-2'
p537
sg5
F0.0
sa(dp538
g3
S'6-5-2'
p539
sg5
F0.0
sa(dp540
g3
S'6-4-2-1'
p541
sg5
F0.0
sa(dp542
g3
S'6-5-3'
p543
sg5
F0.0
sa(dp544
g3
S'6-4-3'
p545
sg5
F0.0
sa(dp546
g3
S'6-4-2'
p547
sg5
F1.3353627600202942
sa(dp548
g3
S'6-3-1'
p549
sg5
F0.7253086419753086
sa(dp550
g3
S'6-4-1'
p551
sg5
F0.17407407407407405
sa(dp552
g3
S'6-4'
p553
sg5
F0.0
sa(dp554
g3
S'6-2'
p555
sg5
F0.0
sa(dp556
g3
S'6-3'
p557
sg5
F0.0
sa(dp558
g3
S'6-1'
p559
sg5
F0.0
sa(dp560
g3
S'6-5-3-1'
p561
sg5
F0.0
sa(dp562
g3
S'6-4-3-1'
p563
sg5
F0.0
sa(dp564
g3
S'6-4-2-1'
p565
sg5
F0.0
sasI7
(lp566
(dp567
g3
S'7-5-2'
p568
sg5
F1.021498617048026
sa(dp569
g3
S'7-5-3-1'
p570
sg5
F1.0128838829916538
sa(dp571
g3
S'7-5-3'
p572
sg5
F0.9636949817774041
sa(dp573
g3
S'7-4-2'
p574
sg5
F0.9527439024390244
sa(dp575
g3
S'7-4-1'
p576
sg5
F0.9146341463414633
sa(dp577
g3
S'7-5-1'
p578
sg5
F0.0
sa(dp579
g3
S'7-6-3-1'
p580
sg5
F0.0
sa(dp581
g3
S'7-6-4-1'
p582
sg5
F0.0
sa(dp583
g3
S'7-5-3-2'
p584
sg5
F0.0
sa(dp585
g3
S'7-5-4-1'
p586
sg5
F0.0
sa(dp587
g3
S'7-3-1'
p588
sg5
F0.0
sa(dp589
g3
S'7-5-4-2'
p590
sg5
F0.0
sa(dp591
g3
S'7-5-1'
p592
sg5
F2.159021406727829
sa(dp593
g3
S'7-3-1'
p594
sg5
F2.159021406727829
sa(dp595
g3
S'7-5-3-1'
p596
sg5
F1.160983209278172
sa(dp597
g3
S'7-4-1'
p598
sg5
F1.0120412844036697
sa(dp599
g3
S'7-5-2'
p600
sg5
F0.8995922528032619
sa(dp601
g3
S'7-5-3'
p602
sg5
F0.8832360300250209
sa(dp603
g3
S'7-4-2'
p604
sg5
F0.7029372021904559
sa(dp605
g3
S'7-2'
p606
sg5
F0.0
sa(dp607
g3
S'7-6-3-1'
p608
sg5
F0.0
sa(dp609
g3
S'7-4-3-1'
p610
sg5
F0.0
sa(dp611
g3
S'7-6-4'
p612
sg5
F0.0
sa(dp613
g3
S'7-5'
p614
sg5
F0.0
sa(dp615
g3
S'7-6-4-2'
p616
sg5
F0.0
sa(dp617
g3
S'7-4'
p618
sg5
F0.0
sa(dp619
g3
S'7-4-3'
p620
sg5
F0.0
sa(dp621
g3
S'7-5-3-2'
p622
sg5
F0.0
sa(dp623
g3
S'7-5-4-1'
p624
sg5
F0.0
sa(dp625
g3
S'7-3'
p626
sg5
F0.0
sa(dp627
g3
S'7-5-4-2'
p628
sg5
F0.0
sa(dp629
g3
S'7-5-2-1'
p630
sg5
F0.0
sa(dp631
g3
S'7-5-2'
p632
sg5
F1.5613207547169812
sa(dp633
g3
S'7-4-1'
p634
sg5
F0.9735294117647059
sa(dp635
g3
S'7-4-2'
p636
sg5
F0.8275
sa(dp637
g3
S'7-5-3-1'
p638
sg5
F0.7522727272727272
sa(dp639
g3
S'7-5-3'
p640
sg5
F0.5773255813953488
sa(dp641
g3
S'7-5-1'
p642
sg5
F0.0
sa(dp643
g3
S'7-3'
p644
sg5
F0.0
sa(dp645
g3
S'7-3-1'
p646
sg5
F0.0
sa(dp647
g3
S'7-4'
p648
sg5
F0.0
sa(dp649
g3
S'6-4-2'
p650
sg5
F20.77647058823529
sa(dp651
g3
S'7-6-3'
p652
sg5
F5.194117647058823
sa(dp653
g3
S'7-4-2'
p654
sg5
F1.4230459307010475
sa(dp655
g3
S'7-5-3-1'
p656
sg5
F1.2048211036992116
sa(dp657
g3
S'7-4-1'
p658
sg5
F1.0654600301659125
sa(dp659
g3
S'7-5-2'
p660
sg5
F0.5978840457046127
sa(dp661
g3
S'7-5-3'
p662
sg5
F0.40738177623990773
sa(dp663
g3
S'7-5-1'
p664
sg5
F0.0
sa(dp665
g3
S'7-6-3-1'
p666
sg5
F0.0
sa(dp667
g3
S'7-4-2-1'
p668
sg5
F0.0
sa(dp669
g3
S'7-6-4-1'
p670
sg5
F0.0
sa(dp671
g3
S'7-6-4-2'
p672
sg5
F0.0
sa(dp673
g3
S'7-4'
p674
sg5
F0.0
sa(dp675
g3
S'7-4-3'
p676
sg5
F0.0
sa(dp677
g3
S'7-5-3-2'
p678
sg5
F0.0
sa(dp679
g3
S'7-5-4-1'
p680
sg5
F0.0
sa(dp681
g3
S'7-3-1'
p682
sg5
F0.0
sa(dp683
g3
S'7-3'
p684
sg5
F0.0
sa(dp685
g3
S'7-6-2'
p686
sg5
F0.0
sa(dp687
g3
S'7-5-4-2'
p688
sg5
F0.0
sa(dp689
g3
S'6-4-2'
p690
sg5
F33.44444444444444
sa(dp691
g3
S'7-4-1'
p692
sg5
F1.2386831275720163
sa(dp693
g3
S'7-4-2'
p694
sg5
F1.1944444444444444
sa(dp695
g3
S'7-5-3-1'
p696
sg5
F0.9154501216545012
sa(dp697
g3
S'7-5-2'
p698
sg5
F0.9106160616061607
sa(dp699
g3
S'7-5-3'
p700
sg5
F0.722565157750343
sa(dp701
g3
S'7-5-1'
p702
sg5
F0.0
sa(dp703
g3
S'7-6-3-1'
p704
sg5
F0.0
sa(dp705
g3
S'7-4'
p706
sg5
F0.0
sa(dp707
g3
S'7-5-4-1'
p708
sg5
F0.0
sa(dp709
g3
S'7-3-1'
p710
sg5
F0.0
sa(dp711
g3
S'7-4-2'
p712
sg5
F1.44
sa(dp713
g3
S'7-5-3'
p714
sg5
F1.0588235294117647
sa(dp715
g3
S'7-5-2'
p716
sg5
F0.9
sa(dp717
g3
S'7-5-3-1'
p718
sg5
F0.8019801980198019
sa(dp719
g3
S'7-3-1'
p720
sg5
F0.0
sa(dp721
g3
S'7-4-1'
p722
sg5
F0.0
sa(dp723
g3
S'7-5-2'
p724
sg5
F1.0804337576614804
sa(dp725
g3
S'7-4-1'
p726
sg5
F1.0698412698412698
sa(dp727
g3
S'7-4-2'
p728
sg5
F1.0135338345864662
sa(dp729
g3
S'7-5-3-1'
p730
sg5
F0.9755391518309451
sa(dp731
g3
S'7-5-3'
p732
sg5
F0.9376136971642589
sa(dp733
g3
S'7-2'
p734
sg5
F0.0
sa(dp735
g3
S'7-5-1'
p736
sg5
F0.0
sa(dp737
g3
S'7-6-3-1'
p738
sg5
F0.0
sa(dp739
g3
S'7-4'
p740
sg5
F0.0
sa(dp741
g3
S'7-5-3-2'
p742
sg5
F0.0
sa(dp743
g3
S'7-5-4-1'
p744
sg5
F0.0
sa(dp745
g3
S'7-3-1'
p746
sg5
F0.0
sa(dp747
g3
S'7-4-1'
p748
sg5
F1.2352352352352352
sa(dp749
g3
S'7-5-3-1'
p750
sg5
F1.0970839260312946
sa(dp751
g3
S'7-4-2'
p752
sg5
F1.0808308308308308
sa(dp753
g3
S'7-5-2'
p754
sg5
F0.857160899216974
sa(dp755
g3
S'7-5-3'
p756
sg5
F0.7579852579852581
sa(dp757
g3
S'7-5-4-1'
p758
sg5
F0.0
sa(dp759
g3
S'7-2'
p760
sg5
F0.0
sa(dp761
g3
S'7-6-3'
p762
sg5
F0.0
sa(dp763
g3
S'7-5-1'
p764
sg5
F0.0
sa(dp765
g3
S'7-6-3-1'
p766
sg5
F0.0
sa(dp767
g3
S'7-5'
p768
sg5
F0.0
sa(dp769
g3
S'7-4'
p770
sg5
F0.0
sa(dp771
g3
S'7-5-3-2'
p772
sg5
F0.0
sa(dp773
g3
S'7-6-4-2'
p774
sg5
F0.0
sa(dp775
g3
S'7-3-1'
p776
sg5
F0.0
sa(dp777
g3
S'7-3'
p778
sg5
F0.0
sa(dp779
g3
S'7-5-4-2'
p780
sg5
F0.0
sa(dp781
g3
S'7-5-3-2'
p782
sg5
F7.652173913043478
sa(dp783
g3
S'7-4-1'
p784
sg5
F1.2082379862700228
sa(dp785
g3
S'7-5-3-1'
p786
sg5
F1.114602362684204
sa(dp787
g3
S'7-5-3'
p788
sg5
F0.9331919406150584
sa(dp789
g3
S'7-4-2'
p790
sg5
F0.8803385917660638
sa(dp791
g3
S'7-5-2'
p792
sg5
F0.5565217391304348
sa(dp793
g3
S'7-5-4-1'
p794
sg5
F0.0
sa(dp795
g3
S'7-5-2-1'
p796
sg5
F0.0
sa(dp797
g3
S'7-5-1'
p798
sg5
F0.0
sa(dp799
g3
S'7-6-3-1'
p800
sg5
F0.0
sa(dp801
g3
S'7-4-2-1'
p802
sg5
F0.0
sa(dp803
g3
S'7-6-4-1'
p804
sg5
F0.0
sa(dp805
g3
S'7-4'
p806
sg5
F0.0
sa(dp807
g3
S'7-4-3-1'
p808
sg5
F0.0
sa(dp809
g3
S'7-3-1'
p810
sg5
F0.0
sa(dp811
g3
S'7-5-4-2'
p812
sg5
F0.0
sa(dp813
g3
S'6-4-2'
p814
sg5
F39.88235294117647
sa(dp815
g3
S'7-4-2'
p816
sg5
F1.2865275142314991
sa(dp817
g3
S'7-5-3'
p818
sg5
F1.2782805429864255
sa(dp819
g3
S'7-4-1'
p820
sg5
F0.8308823529411765
sa(dp821
g3
S'7-5-3-1'
p822
sg5
F0.7620831772199327
sa(dp823
g3
S'7-5-2'
p824
sg5
F0.5247678018575851
sa(dp825
g3
S'7-2'
p826
sg5
F0.0
sa(dp827
g3
S'7-5-1'
p828
sg5
F0.0
sa(dp829
g3
S'7-5'
p830
sg5
F0.0
sa(dp831
g3
S'7-5-3-2'
p832
sg5
F0.0
sa(dp833
g3
S'7-4'
p834
sg5
F0.0
sa(dp835
g3
S'7-6-4-2'
p836
sg5
F0.0
sa(dp837
g3
S'7-3-1'
p838
sg5
F0.0
sa(dp839
g3
S'7-3'
p840
sg5
F0.0
sa(dp841
g3
S'7-5-4-2'
p842
sg5
F0.0
sasI8
(lp843
(dp844
g3
S'8-5-2'
p845
sg5
F1.6293040293040293
sa(dp846
g3
S'8-6-4-2'
p847
sg5
F1.0732962854635857
sa(dp848
g3
S'8-6-4-1'
p849
sg5
F1.0129554655870445
sa(dp850
g3
S'8-6-3-1'
p851
sg5
F0.8805429864253393
sa(dp852
g3
S'8-6-3'
p853
sg5
F0.8553846153846155
sa(dp854
g3
S'8-5-3-1'
p855
sg5
F0.7878542510121457
sa(dp856
g3
S'8-5-3'
p857
sg5
F0.4502024291497976
sa(dp858
g3
S'8-6-5-3'
p859
sg5
F0.0
sa(dp860
g3
S'8-6-5-2'
p861
sg5
F0.0
sa(dp862
g3
S'8-7-5-2'
p863
sg5
F0.0
sa(dp864
g3
S'8-6-4'
p865
sg5
F0.0
sa(dp866
g3
S'8-6-4-3'
p867
sg5
F0.0
sa(dp868
g3
S'8-6-4-2-1'
p869
sg5
F0.0
sa(dp870
g3
S'8-6-2'
p871
sg5
F0.0
sa(dp872
g3
S'8-4-2'
p873
sg5
F0.0
sa(dp874
g3
S'8-7-4-2'
p875
sg5
F0.0
sa(dp876
g3
S'8-7-5-1'
p877
sg5
F7.6625
sa(dp878
g3
S'8-6-4-3-1'
p879
sg5
F7.6625
sa(dp880
g3
S'8-6-4-1'
p881
sg5
F1.5547101449275362
sa(dp882
g3
S'8-5-3-1'
p883
sg5
F1.1941558441558442
sa(dp884
g3
S'8-6-3-1'
p885
sg5
F1.0496575342465755
sa(dp886
g3
S'8-6-4-2'
p887
sg5
F0.9337813620071683
sa(dp888
g3
S'8-5-2'
p889
sg5
F0.8209821428571428
sa(dp890
g3
S'8-6-3'
p891
sg5
F0.7662500000000001
sa(dp892
g3
S'8-5-3'
p893
sg5
F0.45073529411764707
sa(dp894
g3
S'8-5-4-2'
p895
sg5
F0.0
sa(dp896
g3
S'8-5-1'
p897
sg5
F0.0
sa(dp898
g3
S'8-6-4'
p899
sg5
F0.0
sa(dp900
g3
S'8-3-1'
p901
sg5
F0.0
sa(dp902
g3
S'8-6-1'
p903
sg5
F0.0
sa(dp904
g3
S'8-6-3-2'
p905
sg5
F0.0
sa(dp906
g3
S'8-5-4-1'
p907
sg5
F0.0
sa(dp908
g3
S'8-6-5-3-1'
p909
sg5
F0.0
sa(dp910
g3
S'8-6-5-2'
p911
sg5
F0.0
sa(dp912
g3
S'8-4-1'
p913
sg5
F0.0
sa(dp914
g3
S'8-7-5-3-1'
p915
sg5
F0.0
sa(dp916
g3
S'8-6-4-2-1'
p917
sg5
F0.0
sa(dp918
g3
S'8-7-4-2'
p919
sg5
F0.0
sa(dp920
g3
S'8-6-2'
p921
sg5
F0.0
sa(dp922
g3
S'8-4-2'
p923
sg5
F0.0
sa(dp924
g3
S'8-5-2'
p925
sg5
F6.475
sa(dp926
g3
S'8-6-3'
p927
sg5
F1.2333333333333332
sa(dp928
g3
S'8-6-4-2'
p929
sg5
F1.088235294117647
sa(dp930
g3
S'8-6-3-1'
p931
sg5
F0.5606060606060607
sa(dp932
g3
S'8-5-3'
p933
sg5
F0.5441176470588235
sa(dp934
g3
S'8-6-4-1'
p935
sg5
F0.46249999999999997
sa(dp936
g3
S'8-4-1'
p937
sg5
F0.0
sa(dp938
g3
S'8-5-3-1'
p939
sg5
F0.0
sa(dp940
g3
S'8-6-4'
p941
sg5
F0.0
sa(dp942
g3
S'8-5-1'
p943
sg5
F0.0
sa(dp944
g3
S'8-6-2'
p945
sg5
F0.0
sa(dp946
g3
S'8-4-2'
p947
sg5
F0.0
sa(dp948
g3
S'8-7-5-3'
p949
sg5
F9.975000000000001
sa(dp950
g3
S'8-5-2'
p951
sg5
F2.66
sa(dp952
g3
S'8-6-4-1'
p953
sg5
F1.173529411764706
sa(dp954
g3
S'8-6-4-2'
p955
sg5
F1.085514705882353
sa(dp956
g3
S'8-6-3'
p957
sg5
F0.906818181818182
sa(dp958
g3
S'8-5-3'
p959
sg5
F0.83125
sa(dp960
g3
S'8-4-2'
p961
sg5
F0.83125
sa(dp962
g3
S'8-5-3-1'
p963
sg5
F0.69825
sa(dp964
g3
S'8-6-3-1'
p965
sg5
F0.6525700934579439
sa(dp966
g3
S'8-6-5-3'
p967
sg5
F0.0
sa(dp968
g3
S'8-7-3-1'
p969
sg5
F0.0
sa(dp970
g3
S'8-5-4'
p971
sg5
F0.0
sa(dp972
g3
S'8-5-2-1'
p973
sg5
F0.0
sa(dp974
g3
S'8-6-4'
p975
sg5
F0.0
sa(dp976
g3
S'8-6-4-3-1'
p977
sg5
F0.0
sa(dp978
g3
S'8-5-1'
p979
sg5
F0.0
sa(dp980
g3
S'8-5-3-2'
p981
sg5
F0.0
sa(dp982
g3
S'8-7-4'
p983
sg5
F0.0
sa(dp984
g3
S'8-7-4-2'
p985
sg5
F0.0
sa(dp986
g3
S'8-5-4-1'
p987
sg5
F0.0
sa(dp988
g3
S'8-6-5-3-1'
p989
sg5
F0.0
sa(dp990
g3
S'8-6-5-2'
p991
sg5
F0.0
sa(dp992
g3
S'8-4-1'
p993
sg5
F0.0
sa(dp994
g3
S'8-7-5-3-1'
p995
sg5
F0.0
sa(dp996
g3
S'8-7-5-2'
p997
sg5
F0.0
sa(dp998
g3
S'8-6-4-3'
p999
sg5
F0.0
sa(dp1000
g3
S'8-7-4-1'
p1001
sg5
F0.0
sa(dp1002
g3
S'8-6-4-2-1'
p1003
sg5
F0.0
sa(dp1004
g3
S'8-6-2'
p1005
sg5
F0.0
sa(dp1006
g3
S'8-6-4-2'
p1007
sg5
F1.2173913043478262
sa(dp1008
g3
S'8-6-4-1'
p1009
sg5
F1.1111111111111112
sa(dp1010
g3
S'8-5-3-1'
p1011
sg5
F0.9259259259259258
sa(dp1012
g3
S'8-6-3-1'
p1013
sg5
F0.730593607305936
sa(dp1014
g3
S'8-5-2'
p1015
sg5
F0.5555555555555555
sa(dp1016
g3
S'8-6-3'
p1017
sg5
F0.392156862745098
sa(dp1018
g3
S'8-6-5-2'
p1019
sg5
F0.0
sa(dp1020
g3
S'8-6-4'
p1021
sg5
F0.0
sa(dp1022
g3
S'8-5-3'
p1023
sg5
F0.0
sa(dp1024
g3
S'8-5-1'
p1025
sg5
F0.0
sa(dp1026
g3
S'8-6-2'
p1027
sg5
F0.0
sa(dp1028
g3
S'8-4-2'
p1029
sg5
F0.0
sa(dp1030
g3
S'8-7-4-2'
p1031
sg5
F0.0
sa(dp1032
g3
S'8-5-2'
p1033
sg5
F5.6625
sa(dp1034
g3
S'8-5-3'
p1035
sg5
F3.7750000000000004
sa(dp1036
g3
S'8-6-4-2'
p1037
sg5
F1.1153409090909092
sa(dp1038
g3
S'8-6-4-1'
p1039
sg5
F1.0066666666666668
sa(dp1040
g3
S'8-6-3-1'
p1041
sg5
F0.5392857142857143
sa(dp1042
g3
S'8-5-3-1'
p1043
sg5
F0.0
sa(dp1044
g3
S'8-6-3'
p1045
sg5
F0.0
sa(dp1046
g3
S'8-4-2'
p1047
sg5
F0.0
sa(dp1048
g3
S'8-6-3'
p1049
sg5
F2.1286764705882355
sa(dp1050
g3
S'8-5-3'
p1051
sg5
F1.9462184873949577
sa(dp1052
g3
S'8-6-3-1'
p1053
sg5
F1.4449197860962566
sa(dp1054
g3
S'8-6-4-1'
p1055
sg5
F1.0125596184419716
sa(dp1056
g3
S'8-5-3-1'
p1057
sg5
F0.9366176470588237
sa(dp1058
g3
S'8-6-4-2'
p1059
sg5
F0.8126315789473685
sa(dp1060
g3
S'8-5-2'
p1061
sg5
F0.6487394957983194
sa(dp1062
g3
S'8-6-5-2'
p1063
sg5
F0.0
sa(dp1064
g3
S'8-6-4'
p1065
sg5
F0.0
sa(dp1066
g3
S'8-6-4-3'
p1067
sg5
F0.0
sa(dp1068
g3
S'8-5'
p1069
sg5
F0.0
sa(dp1070
g3
S'8-3-1'
p1071
sg5
F0.0
sa(dp1072
g3
S'8-6-4-2-1'
p1073
sg5
F0.0
sa(dp1074
g3
S'8-6-2'
p1075
sg5
F0.0
sa(dp1076
g3
S'8-4-2'
p1077
sg5
F0.0
sa(dp1078
g3
S'8-7-4-2'
p1079
sg5
F0.0
sa(dp1080
g3
S'8-4-2'
p1081
sg5
F1.6228070175438594
sa(dp1082
g3
S'8-5-2'
p1083
sg5
F1.2171052631578947
sa(dp1084
g3
S'8-6-4-2'
p1085
sg5
F1.0911978221415608
sa(dp1086
g3
S'8-5-3-1'
p1087
sg5
F0.9736842105263158
sa(dp1088
g3
S'8-6-3-1'
p1089
sg5
F0.896814404432133
sa(dp1090
g3
S'8-6-3'
p1091
sg5
F0.8851674641148325
sa(dp1092
g3
S'8-6-4-1'
p1093
sg5
F0.8851674641148325
sa(dp1094
g3
S'8-5-3'
p1095
sg5
F0.7212475633528265
sa(dp1096
g3
S'8-3-1'
p1097
sg5
F0.0
sa(dp1098
g3
S'8-6-4'
p1099
sg5
F0.0
sa(dp1100
g3
S'8-6-4-3-1'
p1101
sg5
F0.0
sa(dp1102
g3
S'8-5-1'
p1103
sg5
F0.0
sa(dp1104
g3
S'8-6-5-3-1'
p1105
sg5
F0.0
sa(dp1106
g3
S'8-7-4-2'
p1107
sg5
F0.0
sa(dp1108
g3
S'8-6-1'
p1109
sg5
F0.0
sa(dp1110
g3
S'8-6-5-2'
p1111
sg5
F0.0
sa(dp1112
g3
S'8-4-1'
p1113
sg5
F0.0
sa(dp1114
g3
S'8-7-5-3-1'
p1115
sg5
F0.0
sa(dp1116
g3
S'8-6-4-3'
p1117
sg5
F0.0
sa(dp1118
g3
S'8-7-4-1'
p1119
sg5
F0.0
sa(dp1120
g3
S'8-6-4-2-1'
p1121
sg5
F0.0
sa(dp1122
g3
S'8-6-2'
p1123
sg5
F0.0
sa(dp1124
g3
S'8-6-3-2'
p1125
sg5
F8.333333333333334
sa(dp1126
g3
S'7-5-3-1'
p1127
sg5
F8.333333333333334
sa(dp1128
g3
S'8-6-4-2'
p1129
sg5
F1.1672095548317047
sa(dp1130
g3
S'8-6-3'
p1131
sg5
F1.0416666666666667
sa(dp1132
g3
S'8-6-3-1'
p1133
sg5
F0.9146341463414633
sa(dp1134
g3
S'8-5-3-1'
p1135
sg5
F0.7291666666666666
sa(dp1136
g3
S'8-5-3'
p1137
sg5
F0.7246376811594204
sa(dp1138
g3
S'8-6-4-1'
p1139
sg5
F0.704225352112676
sa(dp1140
g3
S'8-5-2'
p1141
sg5
F0.462962962962963
sa(dp1142
g3
S'8-5-4-2'
p1143
sg5
F0.0
sa(dp1144
g3
S'8-7-5-2'
p1145
sg5
F0.0
sa(dp1146
g3
S'8-6-4'
p1147
sg5
F0.0
sa(dp1148
g3
S'8-6-4-3'
p1149
sg5
F0.0
sa(dp1150
g3
S'8-5-1'
p1151
sg5
F0.0
sa(dp1152
g3
S'8-5-3-2'
p1153
sg5
F0.0
sa(dp1154
g3
S'8-6-4-2-1'
p1155
sg5
F0.0
sa(dp1156
g3
S'8-7-4-2'
p1157
sg5
F0.0
sa(dp1158
g3
S'8-6-2'
p1159
sg5
F0.0
sa(dp1160
g3
S'8-4-2'
p1161
sg5
F0.0
sa(dp1162
g3
S'8-6-5-2'
p1163
sg5
F0.0
sa(dp1164
g3
S'8-6-4-2'
p1165
sg5
F1.4631043256997456
sa(dp1166
g3
S'8-5-3'
p1167
sg5
F0.8333333333333333
sa(dp1168
g3
S'8-5-2'
p1169
sg5
F0.7575757575757576
sa(dp1170
g3
S'8-6-3-1'
p1171
sg5
F0.7407407407407407
sa(dp1172
g3
S'8-5-3-1'
p1173
sg5
F0.5434782608695652
sa(dp1174
g3
S'8-6-3'
p1175
sg5
F0.0
sa(dp1176
g3
S'8-3-1'
p1177
sg5
F0.0
sa(dp1178
g3
S'8-6-1'
p1179
sg5
F0.0
sa(dp1180
g3
S'8-4-1'
p1181
sg5
F0.0
sa(dp1182
g3
S'8-6-4-1'
p1183
sg5
F0.0
sa(dp1184
g3
S'8-6-4'
p1185
sg5
F0.0
sa(dp1186
g3
S'8-6-4-3-1'
p1187
sg5
F0.0
sa(dp1188
g3
S'8-5-1'
p1189
sg5
F0.0
sa(dp1190
g3
S'8-6-5-3-1'
p1191
sg5
F0.0
sa(dp1192
g3
S'8-6-2'
p1193
sg5
F0.0
sa(dp1194
g3
S'8-4-2'
p1195
sg5
F0.0
sasI9
(lp1196
(dp1197
g3
S'9-6-3'
p1198
sg5
F3.746153846153846
sa(dp1199
g3
S'9-6-3-1'
p1200
sg5
F2.996923076923077
sa(dp1201
g3
S'9-7-4-1'
p1202
sg5
F1.3221719457013577
sa(dp1203
g3
S'9-7-5-3-1'
p1204
sg5
F1.057737556561086
sa(dp1205
g3
S'9-7-5-3'
p1206
sg5
F1.0159061277705346
sa(dp1207
g3
S'9-6-4-1'
p1208
sg5
F0.9365384615384615
sa(dp1209
g3
S'9-7-5-2'
p1210
sg5
F0.9081585081585082
sa(dp1211
g3
S'9-7-4-2'
p1212
sg5
F0.8741025641025642
sa(dp1213
g3
S'9-6-4-2'
p1214
sg5
F0.4221018418201517
sa(dp1215
g3
S'9-8-5-3-1'
p1216
sg5
F0.0
sa(dp1217
g3
S'9-7-5-4-1'
p1218
sg5
F0.0
sa(dp1219
g3
S'9-7-6-3-1'
p1220
sg5
F0.0
sa(dp1221
g3
S'9-5-3-1'
p1222
sg5
F0.0
sa(dp1223
g3
S'9-8-6-3-1'
p1224
sg5
F0.0
sa(dp1225
g3
S'9-7-5-3-2'
p1226
sg5
F0.0
sa(dp1227
g3
S'9-7-6-4-1'
p1228
sg5
F0.0
sa(dp1229
g3
S'9-6-4'
p1230
sg5
F0.0
sa(dp1231
g3
S'9-5-3'
p1232
sg5
F0.0
sa(dp1233
g3
S'9-7-3-1'
p1234
sg5
F0.0
sa(dp1235
g3
S'9-7-5-1'
p1236
sg5
F0.0
sa(dp1237
g3
S'9-6-4-1'
p1238
sg5
F2.2201704545454546
sa(dp1239
g3
S'9-6-3-1'
p1240
sg5
F1.4801136363636365
sa(dp1241
g3
S'9-7-5-3-1'
p1242
sg5
F1.114064027370479
sa(dp1243
g3
S'9-7-4-1'
p1244
sg5
F1.0447860962566846
sa(dp1245
g3
S'9-7-4-2'
p1246
sg5
F0.9549120234604105
sa(dp1247
g3
S'9-7-5-3'
p1248
sg5
F0.8633996212121212
sa(dp1249
g3
S'9-6-4-2'
p1250
sg5
F0.7952849389416555
sa(dp1251
g3
S'9-7-5-2'
p1252
sg5
F0.7893939393939394
sa(dp1253
g3
S'9-8-5-3-1'
p1254
sg5
F0.0
sa(dp1255
g3
S'9-7-6-3-1'
p1256
sg5
F0.0
sa(dp1257
g3
S'9-7-4-3-1'
p1258
sg5
F0.0
sa(dp1259
g3
S'9-6-3'
p1260
sg5
F0.0
sa(dp1261
g3
S'9-7-5-3-2'
p1262
sg5
F0.0
sa(dp1263
g3
S'9-4-2'
p1264
sg5
F0.0
sa(dp1265
g3
S'9-6-5-3-1'
p1266
sg5
F0.0
sa(dp1267
g3
S'9-7-3'
p1268
sg5
F0.0
sa(dp1269
g3
S'9-7-3-1'
p1270
sg5
F0.0
sa(dp1271
g3
S'9-7-5-2-1'
p1272
sg5
F0.0
sa(dp1273
g3
S'9-5-2'
p1274
sg5
F0.0
sa(dp1275
g3
S'9-7-5-1'
p1276
sg5
F0.0
sa(dp1277
g3
S'9-7-6-4-2'
p1278
sg5
F0.0
sa(dp1279
g3
S'9-8-6-4-2'
p1280
sg5
F0.0
sa(dp1281
g3
S'9-6-5-3'
p1282
sg5
F0.0
sa(dp1283
g3
S'9-7-5'
p1284
sg5
F0.0
sa(dp1285
g3
S'9-5-3-1'
p1286
sg5
F0.0
sa(dp1287
g3
S'9-6-2'
p1288
sg5
F0.0
sa(dp1289
g3
S'9-8-6-2'
p1290
sg5
F0.0
sa(dp1291
g3
S'9-7-5-4-2'
p1292
sg5
F0.0
sa(dp1293
g3
S'9-5-3'
p1294
sg5
F0.0
sa(dp1295
g3
S'9-7-4-3'
p1296
sg5
F0.0
sa(dp1297
g3
S'9-7-2'
p1298
sg5
F0.0
sa(dp1299
g3
S'9-6-5-2'
p1300
sg5
F0.0
sa(dp1301
g3
S'9-7-5-2'
p1302
sg5
F1.7301136363636365
sa(dp1303
g3
S'9-7-4-2'
p1304
sg5
F1.090909090909091
sa(dp1305
g3
S'9-6-4-2'
p1306
sg5
F0.8787878787878788
sa(dp1307
g3
S'9-7-5-3-1'
p1308
sg5
F0.8787878787878788
sa(dp1309
g3
S'9-7-5-3'
p1310
sg5
F0.8181818181818182
sa(dp1311
g3
S'9-7-4-1'
p1312
sg5
F0.6083916083916084
sa(dp1313
g3
S'9-6-4-1'
p1314
sg5
F0.4943181818181819
sa(dp1315
g3
S'9-6-3'
p1316
sg5
F0.0
sa(dp1317
g3
S'9-5-3-1'
p1318
sg5
F0.0
sa(dp1319
g3
S'9-6-2'
p1320
sg5
F0.0
sa(dp1321
g3
S'9-7-4'
p1322
sg5
F0.0
sa(dp1323
g3
S'9-7-3'
p1324
sg5
F0.0
sa(dp1325
g3
S'9-6-3-1'
p1326
sg5
F0.0
sa(dp1327
g3
S'9-5-2'
p1328
sg5
F0.0
sa(dp1329
g3
S'9-7-5-1'
p1330
sg5
F0.0
sa(dp1331
g3
S'8-6-4-2'
p1332
sg5
F17.825000000000003
sa(dp1333
g3
S'9-7-6-3'
p1334
sg5
F4.456250000000001
sa(dp1335
g3
S'9-8-6-4-2'
p1336
sg5
F4.456250000000001
sa(dp1337
g3
S'9-8-5-3-1'
p1338
sg5
F2.2281250000000004
sa(dp1339
g3
S'9-6-3-1'
p1340
sg5
F1.9805555555555556
sa(dp1341
g3
S'9-7-4-2'
p1342
sg5
F1.6581395348837211
sa(dp1343
g3
S'9-6-3'
p1344
sg5
F1.2732142857142859
sa(dp1345
g3
S'9-6-4-1'
p1346
sg5
F1.2293103448275864
sa(dp1347
g3
S'9-5-3-1'
p1348
sg5
F1.1140625000000002
sa(dp1349
g3
S'9-7-5-3-1'
p1350
sg5
F1.0769270833333333
sa(dp1351
g3
S'9-6-4-2'
p1352
sg5
F1.0610119047619049
sa(dp1353
g3
S'9-7-4-1'
p1354
sg5
F0.4690789473684211
sa(dp1355
g3
S'9-7-5-2'
p1356
sg5
F0.3260670731707317
sa(dp1357
g3
S'9-7-5-3'
p1358
sg5
F0.27851562500000004
sa(dp1359
g3
S'9-7-5-3-2'
p1360
sg5
F0.0
sa(dp1361
g3
S'9-6-5-1'
p1362
sg5
F0.0
sa(dp1363
g3
S'9-7-6-4-1'
p1364
sg5
F0.0
sa(dp1365
g3
S'9-8-5-2'
p1366
sg5
F0.0
sa(dp1367
g3
S'9-8-6-4-1'
p1368
sg5
F0.0
sa(dp1369
g3
S'9-6-4-2-1'
p1370
sg5
F0.0
sa(dp1371
g3
S'9-7-5-4-1'
p1372
sg5
F0.0
sa(dp1373
g3
S'9-5-2'
p1374
sg5
F0.0
sa(dp1375
g3
S'9-8-4-2'
p1376
sg5
F0.0
sa(dp1377
g3
S'9-7-3'
p1378
sg5
F0.0
sa(dp1379
g3
S'9-7-6-4-2'
p1380
sg5
F0.0
sa(dp1381
g3
S'9-8-5-1'
p1382
sg5
F0.0
sa(dp1383
g3
S'9-6-4'
p1384
sg5
F0.0
sa(dp1385
g3
S'9-7-4-2-1'
p1386
sg5
F0.0
sa(dp1387
g3
S'9-7-6-3-1'
p1388
sg5
F0.0
sa(dp1389
g3
S'9-8-6-3-1'
p1390
sg5
F0.0
sa(dp1391
g3
S'9-6-4-3'
p1392
sg5
F0.0
sa(dp1393
g3
S'9-6-2'
p1394
sg5
F0.0
sa(dp1395
g3
S'9-6-3-2'
p1396
sg5
F0.0
sa(dp1397
g3
S'9-7-5-4-2'
p1398
sg5
F0.0
sa(dp1399
g3
S'9-5-3'
p1400
sg5
F0.0
sa(dp1401
g3
S'9-7-3-1'
p1402
sg5
F0.0
sa(dp1403
g3
S'9-6-4-3-1'
p1404
sg5
F0.0
sa(dp1405
g3
S'9-7-4'
p1406
sg5
F0.0
sa(dp1407
g3
S'9-7-5-1'
p1408
sg5
F0.0
sa(dp1409
g3
S'9-6-5-2'
p1410
sg5
F0.0
sa(dp1411
g3
S'8-6-4-2'
p1412
sg5
F22.85
sa(dp1413
g3
S'9-7-4-2'
p1414
sg5
F1.498360655737705
sa(dp1415
g3
S'9-7-4-1'
p1416
sg5
F1.2694444444444444
sa(dp1417
g3
S'9-6-4-2'
p1418
sg5
F1.2284946236559138
sa(dp1419
g3
S'9-7-5-3-1'
p1420
sg5
F1.0123417721518986
sa(dp1421
g3
S'9-7-5-3'
p1422
sg5
F0.9520833333333333
sa(dp1423
g3
S'9-6-4-1'
p1424
sg5
F0.7616666666666667
sa(dp1425
g3
S'9-7-5-2'
p1426
sg5
F0.6243169398907102
sa(dp1427
g3
S'9-7-5-1'
p1428
sg5
F0.0
sa(dp1429
g3
S'9-6-3'
p1430
sg5
F0.0
sa(dp1431
g3
S'9-5-3-1'
p1432
sg5
F0.0
sa(dp1433
g3
S'9-6-2'
p1434
sg5
F0.0
sa(dp1435
g3
S'9-7-3-1'
p1436
sg5
F0.0
sa(dp1437
g3
S'9-7-4'
p1438
sg5
F0.0
sa(dp1439
g3
S'9-8-5-3'
p1440
sg5
F0.0
sa(dp1441
g3
S'9-5-3'
p1442
sg5
F0.0
sa(dp1443
g3
S'9-7-6-3-1'
p1444
sg5
F0.0
sa(dp1445
g3
S'9-6-3-1'
p1446
sg5
F0.0
sa(dp1447
g3
S'9-7-4-2'
p1448
sg5
F2.476190476190476
sa(dp1449
g3
S'9-6-4-2'
p1450
sg5
F1.3756613756613756
sa(dp1451
g3
S'9-7-5-3'
p1452
sg5
F1.0317460317460316
sa(dp1453
g3
S'9-7-5-2'
p1454
sg5
F0.9523809523809523
sa(dp1455
g3
S'9-7-5-3-1'
p1456
sg5
F0.7847082494969819
sa(dp1457
g3
S'9-5-3'
p1458
sg5
F0.0
sa(dp1459
g3
S'9-6-4-1'
p1460
sg5
F0.0
sa(dp1461
g3
S'9-6-3-1'
p1462
sg5
F0.0
sa(dp1463
g3
S'9-7-4-1'
p1464
sg5
F0.0
sa(dp1465
g3
S'9-8-5-3-1'
p1466
sg5
F2.9695121951219514
sa(dp1467
g3
S'9-7-4-2'
p1468
sg5
F1.2098012646793135
sa(dp1469
g3
S'9-7-5-3'
p1470
sg5
F1.1372599896211728
sa(dp1471
g3
S'9-7-5-3-1'
p1472
sg5
F1.074078879086663
sa(dp1473
g3
S'9-7-5-2'
p1474
sg5
F1.070971611355458
sa(dp1475
g3
S'9-7-4-1'
p1476
sg5
F0.8484320557491289
sa(dp1477
g3
S'9-6-3-1'
p1478
sg5
F0.7423780487804879
sa(dp1479
g3
S'9-6-4-2'
p1480
sg5
F0.6885825379992931
sa(dp1481
g3
S'9-6-4-1'
p1482
sg5
F0.45684803001876173
sa(dp1483
g3
S'9-7-5-4-1'
p1484
sg5
F0.0
sa(dp1485
g3
S'9-7-6-3-1'
p1486
sg5
F0.0
sa(dp1487
g3
S'9-5-3-1'
p1488
sg5
F0.0
sa(dp1489
g3
S'9-7-5-3-2'
p1490
sg5
F0.0
sa(dp1491
g3
S'9-7-3-1'
p1492
sg5
F0.0
sa(dp1493
g3
S'9-4-2'
p1494
sg5
F0.0
sa(dp1495
g3
S'9-6-3'
p1496
sg5
F0.0
sa(dp1497
g3
S'9-6-1'
p1498
sg5
F0.0
sa(dp1499
g3
S'9-7-5-1'
p1500
sg5
F0.0
sa(dp1501
g3
S'9-6-4-2'
p1502
sg5
F2.123076923076923
sa(dp1503
g3
S'9-6-3'
p1504
sg5
F1.38
sa(dp1505
g3
S'9-6-4-1'
p1506
sg5
F1.3142857142857143
sa(dp1507
g3
S'9-7-4-1'
p1508
sg5
F1.15
sa(dp1509
g3
S'9-7-4-2'
p1510
sg5
F1.0454545454545454
sa(dp1511
g3
S'9-7-5-3'
p1512
sg5
F0.9
sa(dp1513
g3
S'9-7-5-3-1'
p1514
sg5
F0.8679245283018867
sa(dp1515
g3
S'9-7-5-2'
p1516
sg5
F0.8186440677966103
sa(dp1517
g3
S'9-6-3-1'
p1518
sg5
F0.43124999999999997
sa(dp1519
g3
S'9-8-5-3-1'
p1520
sg5
F0.0
sa(dp1521
g3
S'9-7-5-3-2'
p1522
sg5
F0.0
sa(dp1523
g3
S'9-7-3-1'
p1524
sg5
F0.0
sa(dp1525
g3
S'9-4-2'
p1526
sg5
F0.0
sa(dp1527
g3
S'9-8-5-2'
p1528
sg5
F0.0
sa(dp1529
g3
S'9-6-4-2-1'
p1530
sg5
F0.0
sa(dp1531
g3
S'9-7-5-4-1'
p1532
sg5
F0.0
sa(dp1533
g3
S'9-7-3'
p1534
sg5
F0.0
sa(dp1535
g3
S'9-5-2'
p1536
sg5
F0.0
sa(dp1537
g3
S'9-7-6-3'
p1538
sg5
F0.0
sa(dp1539
g3
S'9-7-6-4-2'
p1540
sg5
F0.0
sa(dp1541
g3
S'9-8-6-4-2'
p1542
sg5
F0.0
sa(dp1543
g3
S'9-6-4'
p1544
sg5
F0.0
sa(dp1545
g3
S'9-7-6-3-1'
p1546
sg5
F0.0
sa(dp1547
g3
S'9-5-3-1'
p1548
sg5
F0.0
sa(dp1549
g3
S'9-6-2'
p1550
sg5
F0.0
sa(dp1551
g3
S'9-7-5-4-2'
p1552
sg5
F0.0
sa(dp1553
g3
S'9-7-5-1'
p1554
sg5
F0.0
sa(dp1555
g3
S'9-7-5'
p1556
sg5
F0.0
sa(dp1557
g3
S'9-7-2'
p1558
sg5
F0.0
sa(dp1559
g3
S'9-6-3-1'
p1560
sg5
F2.0085995085995085
sa(dp1561
g3
S'9-5-3-1'
p1562
sg5
F1.2274774774774775
sa(dp1563
g3
S'9-7-5-3-1'
p1564
sg5
F1.1539419603935732
sa(dp1565
g3
S'9-7-4-1'
p1566
sg5
F1.133056133056133
sa(dp1567
g3
S'9-7-4-2'
p1568
sg5
F0.7160285285285285
sa(dp1569
g3
S'9-7-5-2'
p1570
sg5
F0.7014157014157014
sa(dp1571
g3
S'9-6-4-2'
p1572
sg5
F0.6312741312741312
sa(dp1573
g3
S'9-7-5-3'
p1574
sg5
F0.6137387387387387
sa(dp1575
g3
S'9-6-4-1'
p1576
sg5
F0.36824324324324326
sa(dp1577
g3
S'9-8-5-3-1'
p1578
sg5
F0.0
sa(dp1579
g3
S'9-7-4-3-1'
p1580
sg5
F0.0
sa(dp1581
g3
S'9-6-3'
p1582
sg5
F0.0
sa(dp1583
g3
S'9-6-4'
p1584
sg5
F0.0
sa(dp1585
g3
S'9-6-4-2-1'
p1586
sg5
F0.0
sa(dp1587
g3
S'9-7-4-2-1'
p1588
sg5
F0.0
sa(dp1589
g3
S'9-7-3-1'
p1590
sg5
F0.0
sa(dp1591
g3
S'9-7-5-1'
p1592
sg5
F0.0
sa(dp1593
g3
S'9-6-5-3'
p1594
sg5
F0.0
sa(dp1595
g3
S'9-7-5-4-1'
p1596
sg5
F0.0
sa(dp1597
g3
S'9-7-6-3-1'
p1598
sg5
F0.0
sa(dp1599
g3
S'9-8-6-3-1'
p1600
sg5
F0.0
sa(dp1601
g3
S'9-6-2'
p1602
sg5
F0.0
sa(dp1603
g3
S'9-7-4'
p1604
sg5
F0.0
sa(dp1605
g3
S'8-6-4-2'
p1606
sg5
F35.6
sa(dp1607
g3
S'9-7-4-2'
p1608
sg5
F1.6837837837837837
sa(dp1609
g3
S'9-7-5-3'
p1610
sg5
F1.2714285714285714
sa(dp1611
g3
S'9-6-3-1'
p1612
sg5
F1.1125
sa(dp1613
g3
S'9-7-5-3-1'
p1614
sg5
F1.0853658536585367
sa(dp1615
g3
S'9-6-4-1'
p1616
sg5
F0.9888888888888889
sa(dp1617
g3
S'9-7-5-2'
p1618
sg5
F0.5235294117647058
sa(dp1619
g3
S'9-7-6-4-2'
p1620
sg5
F0.0
sa(dp1621
g3
S'9-7-2'
p1622
sg5
F0.0
sa(dp1623
g3
S'9-6-4-2'
p1624
sg5
F0.0
sa(dp1625
g3
S'9-6-3'
p1626
sg5
F0.0
sa(dp1627
g3
S'9-5-3-1'
p1628
sg5
F0.0
sa(dp1629
g3
S'9-6-2'
p1630
sg5
F0.0
sa(dp1631
g3
S'9-7-3-1'
p1632
sg5
F0.0
sa(dp1633
g3
S'9-4-2'
p1634
sg5
F0.0
sa(dp1635
g3
S'9-7-5'
p1636
sg5
F0.0
sa(dp1637
g3
S'9-7-5-4-2'
p1638
sg5
F0.0
sa(dp1639
g3
S'9-5-3'
p1640
sg5
F0.0
sa(dp1641
g3
S'9-5-2'
p1642
sg5
F0.0
sa(dp1643
g3
S'9-7-4-1'
p1644
sg5
F0.0
sa(dp1645
g3
S'9-7-5-1'
p1646
sg5
F0.0
sas.