(dp0
I2
(lp1
(dp2
S'pattern'
p3
S'2'
p4
sS'oe'
p5
F0.8880988560451848
sa(dp6
g3
S'2-1'
p7
sg5
F0.0
sa(dp8
g3
S'2'
p9
sg5
F0.9568707490291157
sa(dp10
g3
S'2-1'
p11
sg5
F0.0
sa(dp12
g3
S'2-1'
p13
sg5
F1.4395496818404308
sa(dp14
g3
S'2'
p15
sg5
F0.9500438725652229
sa(dp16
g3
S'2'
p17
sg5
F0.9329345531315975
sa(dp18
g3
S'2-1'
p19
sg5
F0.0
sa(dp20
g3
S'2'
p21
sg5
F0.9582995951417005
sa(dp22
g3
S'2-1'
p23
sg5
F0.0
sa(dp24
g3
S'2'
p25
sg5
F0.9273545397843713
sa(dp26
g3
S'2-1'
p27
sg5
F0.0
sa(dp28
g3
S'2'
p29
sg5
F0.9444283635412
sa(dp30
g3
S'2-1'
p31
sg5
F0.0
sa(dp32
g3
S'2'
p33
sg5
F0.9304435483870969
sa(dp34
g3
S'2-1'
p35
sg5
F0.0
sa(dp36
g3
S'2'
p37
sg5
F0.9532572690467427
sa(dp38
g3
S'2-1'
p39
sg5
F0.0
sa(dp40
g3
S'2'
p41
sg5
F0.9322085363116691
sa(dp42
g3
S'2-1'
p43
sg5
F0.0
sa(dp44
g3
S'2'
p45
sg5
F0.965410199556541
sa(dp46
g3
S'2-1'
p47
sg5
F0.0
sa(dp48
g3
S'2'
p49
sg5
F0.9565822349082583
sa(dp50
g3
S'2'
p51
sg5
F0.9589787234042554
sa(dp52
g3
S'2-1'
p53
sg5
F0.0
sa(dp54
g3
S'2'
p55
sg5
F0.9156656302996043
sa(dp56
g3
S'2-1'
p57
sg5
F0.0
sa(dp58
g3
S'2'
p59
sg5
F0.9703417312847712
sa(dp60
g3
S'2-1'
p61
sg5
F0.0
sa(dp62
g3
S'2'
p63
sg5
F0.9685239024519761
sa(dp64
g3
S'2-1'
p65
sg5
F0.0
sa(dp66
g3
S'2'
p67
sg5
F0.961155028546333
sa(dp68
g3
S'2-1'
p69
sg5
F0.0
sa(dp70
g3
S'2'
p71
sg5
F0.9670542230837682
sa(dp72
g3
S'2-1'
p73
sg5
F0.0
sa(dp74
g3
S'2'
p75
sg5
F0.8720752549724553
sa(dp76
g3
S'2-1'
p77
sg5
F0.0
sa(dp78
g3
S'2'
p79
sg5
F0.9520397647207285
sa(dp80
g3
S'2-1'
p81
sg5
F0.0
sa(dp82
g3
S'2'
p83
sg5
F0.9606245933636955
sa(dp84
g3
S'2-1'
p85
sg5
F0.0
sa(dp86
g3
S'2'
p87
sg5
F0.9322085363116691
sa(dp88
g3
S'2-1'
p89
sg5
F0.0
sa(dp90
g3
S'2'
p91
sg5
F0.9685239024519761
sa(dp92
g3
S'2-1'
p93
sg5
F0.0
sa(dp94
g3
S'2'
p95
sg5
F0.9489723874462015
sa(dp96
g3
S'2-1'
p97
sg5
F0.0
sa(dp98
g3
S'2'
p99
sg5
F0.9542097155454039
sa(dp100
g3
S'2-1'
p101
sg5
F0.0
sa(dp102
g3
S'2'
p103
sg5
F0.932999583241149
sa(dp104
g3
S'2-1'
p105
sg5
F0.0
sa(dp106
g3
S'2'
p107
sg5
F0.9758328930001393
sa(dp108
g3
S'2-1'
p109
sg5
F0.0
sa(dp110
g3
S'2'
p111
sg5
F0.9444283635412
sa(dp112
g3
S'2-1'
p113
sg5
F0.0
sa(dp114
g3
S'2'
p115
sg5
F0.9498852521024049
sa(dp116
g3
S'2-1'
p117
sg5
F0.0
sa(dp118
g3
S'2'
p119
sg5
F0.901651809124279
sa(dp120
g3
S'2-1'
p121
sg5
F0.0
sa(dp122
g3
S'2'
p123
sg5
F0.9703417312847712
sa(dp124
g3
S'2-1'
p125
sg5
F0.0
sa(dp126
g3
S'2'
p127
sg5
F0.9456966666522484
sa(dp128
g3
S'2-1'
p129
sg5
F0.0
sa(dp130
g3
S'2'
p131
sg5
F0.9244845889908796
sa(dp132
g3
S'2-1'
p133
sg5
F0.0
sa(dp134
g3
S'2'
p135
sg5
F0.9614642636286554
sa(dp136
g3
S'2-1'
p137
sg5
F0.0
sa(dp138
g3
S'2'
p139
sg5
F0.927938016403862
sa(dp140
g3
S'2-1'
p141
sg5
F0.0
sa(dp142
g3
S'2'
p143
sg5
F0.9422720454301939
sa(dp144
g3
S'2-1'
p145
sg5
F0.0
sa(dp146
g3
S'2'
p147
sg5
F0.874241702464915
sa(dp148
g3
S'2-1'
p149
sg5
F0.0
sa(dp150
g3
S'2'
p151
sg5
F0.9582995951417005
sa(dp152
g3
S'2-1'
p153
sg5
F0.0
sa(dp154
g3
S'2'
p155
sg5
F0.958817456889741
sa(dp156
g3
S'2-1'
p157
sg5
F0.0
sa(dp158
g3
S'2'
p159
sg5
F0.935655853229028
sa(dp160
g3
S'2-1'
p161
sg5
F0.0
sasI3
(lp162
(dp163
g3
S'3-1'
p164
sg5
F0.954949223459667
sa(dp165
g3
S'3'
p166
sg5
F0.4381194690265487
sa(dp167
g3
S'3-1'
p168
sg5
F1.0854118411389189
sa(dp169
g3
S'3'
p170
sg5
F0.38808780536147863
sa(dp171
g3
S'3-2'
p172
sg5
F0.0
sa(dp173
g3
S'3-2'
p174
sg5
F8.035087719298247
sa(dp175
g3
S'3-1'
p176
sg5
F0.9555021522697863
sa(dp177
g3
S'3'
p178
sg5
F0.8987622018717923
sa(dp179
g3
S'3-1'
p180
sg5
F0.9807947855340622
sa(dp181
g3
S'3'
p182
sg5
F0.737941196395908
sa(dp183
g3
S'3-2'
p184
sg5
F0.0
sa(dp185
g3
S'3-1'
p186
sg5
F1.0104573060370832
sa(dp187
g3
S'3'
p188
sg5
F0.24403392754456585
sa(dp189
g3
S'3-2'
p190
sg5
F0.0
sa(dp191
g3
S'3-1'
p192
sg5
F0.9486519577982994
sa(dp193
g3
S'3'
p194
sg5
F0.9313322815798063
sa(dp195
g3
S'3-2'
p196
sg5
F20.171875
sa(dp197
g3
S'3-1'
p198
sg5
F0.9805302966811935
sa(dp199
g3
S'3'
p200
sg5
F0.6587661880630631
sa(dp201
g3
S'3-1'
p202
sg5
F0.9095001205712396
sa(dp203
g3
S'3'
p204
sg5
F0.6922496911748192
sa(dp205
g3
S'3-2'
p206
sg5
F0.0
sa(dp207
g3
S'3-1'
p208
sg5
F1.0787636098884734
sa(dp209
g3
S'3'
p210
sg5
F0.5669240669240669
sa(dp211
g3
S'3-1'
p212
sg5
F1.020051113775478
sa(dp213
g3
S'3'
p214
sg5
F0.6960604051121292
sa(dp215
g3
S'3-2'
p216
sg5
F0.0
sa(dp217
g3
S'3-1'
p218
sg5
F0.980905743461261
sa(dp219
g3
S'3'
p220
sg5
F0.6995884773662552
sa(dp221
g3
S'3-2'
p222
sg5
F0.0
sa(dp223
g3
S'3-1'
p224
sg5
F1.0001015634801624
sa(dp225
g3
S'3'
p226
sg5
F0.7797054446098142
sa(dp227
g3
S'3'
p228
sg5
F1.481602159031069
sa(dp229
g3
S'3-1'
p230
sg5
F0.7421623643845866
sa(dp231
g3
S'3-2'
p232
sg5
F0.0
sa(dp233
g3
S'3-1'
p234
sg5
F1.0407039516303176
sa(dp235
g3
S'3'
p236
sg5
F0.42609906504873685
sa(dp237
g3
S'3-1'
p238
sg5
F0.9548070225347811
sa(dp239
g3
S'3'
p240
sg5
F0.6271758747161903
sa(dp241
g3
S'3-2'
p242
sg5
F0.0
sa(dp243
g3
S'3-1'
p244
sg5
F1.0188342760534708
sa(dp245
g3
S'3'
p246
sg5
F0.6399281418417558
sa(dp247
g3
S'3-2'
p248
sg5
F0.0
sa(dp249
g3
S'3-1'
p250
sg5
F1.0538411151672162
sa(dp251
g3
S'3'
p252
sg5
F0.5339861788045114
sa(dp253
g3
S'3-1'
p254
sg5
F1.0339629371053911
sa(dp255
g3
S'3'
p256
sg5
F0.5799792103685946
sa(dp257
g3
S'3-1'
p258
sg5
F1.0610520145088604
sa(dp259
g3
S'3'
p260
sg5
F0.4884708497043299
sa(dp261
g3
S'3-2'
p262
sg5
F0.0
sa(dp263
g3
S'3-1'
p264
sg5
F0.9903080437064017
sa(dp265
g3
S'3'
p266
sg5
F0.6737891997160693
sa(dp267
g3
S'3-2'
p268
sg5
F0.0
sa(dp269
g3
S'3-1'
p270
sg5
F1.0180972532737145
sa(dp271
g3
S'3'
p272
sg5
F0.8033560078652282
sa(dp273
g3
S'3-2'
p274
sg5
F0.0
sa(dp275
g3
S'3-1'
p276
sg5
F1.020051113775478
sa(dp277
g3
S'3'
p278
sg5
F0.6960604051121292
sa(dp279
g3
S'3-2'
p280
sg5
F0.0
sa(dp281
g3
S'3-1'
p282
sg5
F1.0188342760534708
sa(dp283
g3
S'3'
p284
sg5
F0.6399281418417558
sa(dp285
g3
S'3-2'
p286
sg5
F0.0
sa(dp287
g3
S'3-1'
p288
sg5
F1.0145774269881231
sa(dp289
g3
S'3'
p290
sg5
F0.5195058593979571
sa(dp291
g3
S'3-2'
p292
sg5
F0.0
sa(dp293
g3
S'3'
p294
sg5
F0.9914836088636348
sa(dp295
g3
S'3-1'
p296
sg5
F0.9195687193446727
sa(dp297
g3
S'3-2'
p298
sg5
F0.0
sa(dp299
g3
S'3-1'
p300
sg5
F1.0366818709532353
sa(dp301
g3
S'3'
p302
sg5
F0.5001189448272216
sa(dp303
g3
S'3-1'
p304
sg5
F1.0790959349593496
sa(dp305
g3
S'3'
p306
sg5
F0.6231649831649833
sa(dp307
g3
S'3-2'
p308
sg5
F20.171875
sa(dp309
g3
S'3-1'
p310
sg5
F0.9805302966811935
sa(dp311
g3
S'3'
p312
sg5
F0.6587661880630631
sa(dp313
g3
S'3-1'
p314
sg5
F1.0376095528065992
sa(dp315
g3
S'3'
p316
sg5
F0.5759973338599782
sa(dp317
g3
S'3-2'
p318
sg5
F0.0
sa(dp319
g3
S'3-1'
p320
sg5
F1.0295292371055027
sa(dp321
g3
S'3'
p322
sg5
F0.33716898143923496
sa(dp323
g3
S'3-1'
p324
sg5
F0.9548070225347811
sa(dp325
g3
S'3'
p326
sg5
F0.6271758747161903
sa(dp327
g3
S'3-2'
p328
sg5
F0.0
sa(dp329
g3
S'3-1'
p330
sg5
F1.0272169282041834
sa(dp331
g3
S'3'
p332
sg5
F0.6741201267932422
sa(dp333
g3
S'3-2'
p334
sg5
F0.0
sa(dp335
g3
S'3'
p336
sg5
F1.1224701978266134
sa(dp337
g3
S'3-1'
p338
sg5
F0.9049800773938705
sa(dp339
g3
S'3-1'
p340
sg5
F0.975765306122449
sa(dp341
g3
S'3'
p342
sg5
F0.775630703166935
sa(dp343
g3
S'3-2'
p344
sg5
F0.0
sa(dp345
g3
S'3-1'
p346
sg5
F0.9734335095955153
sa(dp347
g3
S'3'
p348
sg5
F0.7780050073126595
sa(dp349
g3
S'3-2'
p350
sg5
F0.0
sa(dp351
g3
S'3-1'
p352
sg5
F1.0205031192684966
sa(dp353
g3
S'3'
p354
sg5
F0.6695712517052936
sa(dp355
g3
S'3-1'
p356
sg5
F1.0424043454300012
sa(dp357
g3
S'3'
p358
sg5
F0.4044068129066004
sa(dp359
g3
S'3-1'
p360
sg5
F1.0104573060370832
sa(dp361
g3
S'3'
p362
sg5
F0.24403392754456585
sa(dp363
g3
S'3-2'
p364
sg5
F0.0
sa(dp365
g3
S'3-1'
p366
sg5
F0.9947479125501945
sa(dp367
g3
S'3'
p368
sg5
F0.8224198005526854
sa(dp369
g3
S'3-1'
p370
sg5
F1.0483821295575833
sa(dp371
g3
S'3'
p372
sg5
F0.6453184196283601
sa(dp373
g3
S'3-2'
p374
sg5
F0.0
sasI4
(lp375
(dp376
g3
S'4-2'
p377
sg5
F0.891407937582616
sa(dp378
g3
S'4-1'
p379
sg5
F0.8018252694336162
sa(dp380
g3
S'4-2-1'
p381
sg5
F0.0
sa(dp382
g3
S'4'
p383
sg5
F0.0
sa(dp384
g3
S'4-2'
p385
sg5
F0.9409418092651672
sa(dp386
g3
S'4-1'
p387
sg5
F0.9091562196917993
sa(dp388
g3
S'4-3-1'
p389
sg5
F0.0
sa(dp390
g3
S'4-2'
p391
sg5
F0.9999778108150088
sa(dp392
g3
S'4-1'
p393
sg5
F0.7870663953433344
sa(dp394
g3
S'4-2-1'
p395
sg5
F0.0
sa(dp396
g3
S'4-3-1'
p397
sg5
F0.0
sa(dp398
g3
S'4-2'
p399
sg5
F0.9433552512517344
sa(dp400
g3
S'4-1'
p401
sg5
F0.9107215654300856
sa(dp402
g3
S'4-2-1'
p403
sg5
F0.0
sa(dp404
g3
S'4-3-1'
p405
sg5
F0.0
sa(dp406
g3
S'4'
p407
sg5
F0.0
sa(dp408
g3
S'4-1'
p409
sg5
F1.0631779471089198
sa(dp410
g3
S'4-2'
p411
sg5
F0.920512410951027
sa(dp412
g3
S'4-3-1'
p413
sg5
F0.0
sa(dp414
g3
S'4-2-1'
p415
sg5
F0.0
sa(dp416
g3
S'4'
p417
sg5
F0.0
sa(dp418
g3
S'4-2'
p419
sg5
F0.95619904947358
sa(dp420
g3
S'4-1'
p421
sg5
F0.6200379085902297
sa(dp422
g3
S'4-2-1'
p423
sg5
F0.0
sa(dp424
g3
S'4'
p425
sg5
F0.0
sa(dp426
g3
S'4-1'
p427
sg5
F1.242445832110976
sa(dp428
g3
S'4-2'
p429
sg5
F0.8603512264335745
sa(dp430
g3
S'4-2-1'
p431
sg5
F0.0
sa(dp432
g3
S'4-2'
p433
sg5
F0.9721601887833459
sa(dp434
g3
S'4-1'
p435
sg5
F0.8865039694207586
sa(dp436
g3
S'4-2-1'
p437
sg5
F0.0
sa(dp438
g3
S'4-3-1'
p439
sg5
F0.0
sa(dp440
g3
S'4'
p441
sg5
F0.0
sa(dp442
g3
S'4-1'
p443
sg5
F1.0350160743765748
sa(dp444
g3
S'4-2'
p445
sg5
F0.9413986073732324
sa(dp446
g3
S'4-2-1'
p447
sg5
F0.0
sa(dp448
g3
S'4-1'
p449
sg5
F1.0260137062303178
sa(dp450
g3
S'4-2'
p451
sg5
F0.9064762016079881
sa(dp452
g3
S'4-2-1'
p453
sg5
F0.0
sa(dp454
g3
S'4-3'
p455
sg5
F0.0
sa(dp456
g3
S'4-1'
p457
sg5
F1.1146439380870983
sa(dp458
g3
S'4-2'
p459
sg5
F0.8887479792328984
sa(dp460
g3
S'4-2-1'
p461
sg5
F0.0
sa(dp462
g3
S'4'
p463
sg5
F0.0
sa(dp464
g3
S'4-3'
p465
sg5
F0.0
sa(dp466
g3
S'4-2'
p467
sg5
F0.9700959829363668
sa(dp468
g3
S'4-1'
p469
sg5
F0.9490920220363191
sa(dp470
g3
S'4-2'
p471
sg5
F1.1190102173708731
sa(dp472
g3
S'4-1'
p473
sg5
F0.3391192542590807
sa(dp474
g3
S'4-2-1'
p475
sg5
F0.0
sa(dp476
g3
S'4-3-1'
p477
sg5
F0.0
sa(dp478
g3
S'4'
p479
sg5
F0.0
sa(dp480
g3
S'4-1'
p481
sg5
F0.9951871657754011
sa(dp482
g3
S'4-2'
p483
sg5
F0.8990338164251207
sa(dp484
g3
S'4-2-1'
p485
sg5
F0.0
sa(dp486
g3
S'4'
p487
sg5
F0.0
sa(dp488
g3
S'4-2'
p489
sg5
F1.0224701677693762
sa(dp490
g3
S'4-1'
p491
sg5
F0.8226674641148325
sa(dp492
g3
S'4'
p493
sg5
F0.0
sa(dp494
g3
S'4-3'
p495
sg5
F0.0
sa(dp496
g3
S'4-1'
p497
sg5
F1.2625272331154684
sa(dp498
g3
S'4-2'
p499
sg5
F0.8795328606934767
sa(dp500
g3
S'4-2-1'
p501
sg5
F0.0
sa(dp502
g3
S'4-3-1'
p503
sg5
F0.0
sa(dp504
g3
S'4'
p505
sg5
F0.0
sa(dp506
g3
S'4-3'
p507
sg5
F0.0
sa(dp508
g3
S'4-2'
p509
sg5
F0.9788472305969506
sa(dp510
g3
S'4-1'
p511
sg5
F0.8740601503759399
sa(dp512
g3
S'4-2-1'
p513
sg5
F0.0
sa(dp514
g3
S'4'
p515
sg5
F0.0
sa(dp516
g3
S'4-2'
p517
sg5
F0.9675896609291347
sa(dp518
g3
S'4-1'
p519
sg5
F0.8732599707249369
sa(dp520
g3
S'4-2-1'
p521
sg5
F0.0
sa(dp522
g3
S'4-1'
p523
sg5
F0.9058865720579948
sa(dp524
g3
S'4-2'
p525
sg5
F0.8814830970556161
sa(dp526
g3
S'4-2-1'
p527
sg5
F0.0
sa(dp528
g3
S'4-3-1'
p529
sg5
F0.0
sa(dp530
g3
S'4'
p531
sg5
F0.0
sa(dp532
g3
S'4-1'
p533
sg5
F0.9936070813867715
sa(dp534
g3
S'4-2'
p535
sg5
F0.933029529711994
sa(dp536
g3
S'4-3-1'
p537
sg5
F0.0
sa(dp538
g3
S'4-1'
p539
sg5
F1.0942362951076612
sa(dp540
g3
S'4-2'
p541
sg5
F0.9104084724326278
sa(dp542
g3
S'4-1'
p543
sg5
F1.0260137062303178
sa(dp544
g3
S'4-2'
p545
sg5
F0.9064762016079881
sa(dp546
g3
S'4-2-1'
p547
sg5
F0.0
sa(dp548
g3
S'4-3'
p549
sg5
F0.0
sa(dp550
g3
S'4-1'
p551
sg5
F1.2625272331154684
sa(dp552
g3
S'4-2'
p553
sg5
F0.8795328606934767
sa(dp554
g3
S'4-2-1'
p555
sg5
F0.0
sa(dp556
g3
S'4-3-1'
p557
sg5
F0.0
sa(dp558
g3
S'4'
p559
sg5
F0.0
sa(dp560
g3
S'4-3'
p561
sg5
F0.0
sa(dp562
g3
S'4-2'
p563
sg5
F1.0339467655446983
sa(dp564
g3
S'4-1'
p565
sg5
F0.6315684129059806
sa(dp566
g3
S'4-2-1'
p567
sg5
F0.0
sa(dp568
g3
S'4'
p569
sg5
F0.0
sa(dp570
g3
S'4-3-1'
p571
sg5
F12.143617021276595
sa(dp572
g3
S'4-2'
p573
sg5
F0.9932594314321473
sa(dp574
g3
S'4-1'
p575
sg5
F0.8409021969926768
sa(dp576
g3
S'4-2-1'
p577
sg5
F0.0
sa(dp578
g3
S'4'
p579
sg5
F0.0
sa(dp580
g3
S'4-2'
p581
sg5
F0.9332950443058747
sa(dp582
g3
S'4-1'
p583
sg5
F0.8765243902439025
sa(dp584
g3
S'4-2-1'
p585
sg5
F0.0
sa(dp586
g3
S'4'
p587
sg5
F0.0
sa(dp588
g3
S'4-1'
p589
sg5
F1.0086146840432944
sa(dp590
g3
S'4-2'
p591
sg5
F0.9583190937282451
sa(dp592
g3
S'4-2-1'
p593
sg5
F0.0
sa(dp594
g3
S'4-1'
p595
sg5
F1.242445832110976
sa(dp596
g3
S'4-2'
p597
sg5
F0.8603512264335745
sa(dp598
g3
S'4-2-1'
p599
sg5
F0.0
sa(dp600
g3
S'4-2'
p601
sg5
F0.9623045012036517
sa(dp602
g3
S'4-1'
p603
sg5
F0.9138390304450301
sa(dp604
g3
S'4-2-1'
p605
sg5
F0.0
sa(dp606
g3
S'4-3'
p607
sg5
F0.0
sa(dp608
g3
S'4-2'
p609
sg5
F0.9758985223045643
sa(dp610
g3
S'4-1'
p611
sg5
F0.5485167352644249
sa(dp612
g3
S'4-2-1'
p613
sg5
F0.0
sa(dp614
g3
S'4-2'
p615
sg5
F1.0224701677693762
sa(dp616
g3
S'4-1'
p617
sg5
F0.8226674641148325
sa(dp618
g3
S'4'
p619
sg5
F0.0
sa(dp620
g3
S'4-3'
p621
sg5
F0.0
sa(dp622
g3
S'4-2'
p623
sg5
F0.9834488688828532
sa(dp624
g3
S'4-1'
p625
sg5
F0.7468047284391582
sa(dp626
g3
S'4-3-1'
p627
sg5
F0.0
sa(dp628
g3
S'4-2-1'
p629
sg5
F0.0
sa(dp630
g3
S'4'
p631
sg5
F0.0
sa(dp632
g3
S'4-2'
p633
sg5
F0.9305053025577043
sa(dp634
g3
S'4-1'
p635
sg5
F0.8871028037383178
sa(dp636
g3
S'4-2-1'
p637
sg5
F0.0
sa(dp638
g3
S'4-3-1'
p639
sg5
F13.666666666666666
sa(dp640
g3
S'4-2'
p641
sg5
F0.9781045751633987
sa(dp642
g3
S'4-1'
p643
sg5
F0.7592592592592592
sa(dp644
g3
S'4-2-1'
p645
sg5
F0.0
sa(dp646
g3
S'4'
p647
sg5
F0.0
sa(dp648
g3
S'4-1'
p649
sg5
F1.1343647973187714
sa(dp650
g3
S'4-2'
p651
sg5
F0.8670786647350436
sa(dp652
g3
S'4-2-1'
p653
sg5
F0.0
sa(dp654
g3
S'4-3-1'
p655
sg5
F0.0
sa(dp656
g3
S'4'
p657
sg5
F0.0
sa(dp658
g3
S'4-2'
p659
sg5
F0.992944171667576
sa(dp660
g3
S'4-1'
p661
sg5
F0.7354399008674102
sa(dp662
g3
S'4-2-1'
p663
sg5
F0.0
sa(dp664
g3
S'4'
p665
sg5
F0.0
sa(dp666
g3
S'4-1'
p667
sg5
F1.1756941283568503
sa(dp668
g3
S'4-2'
p669
sg5
F0.7931564221335654
sa(dp670
g3
S'4-2-1'
p671
sg5
F0.0
sa(dp672
g3
S'4'
p673
sg5
F0.0
sa(dp674
g3
S'4-1'
p675
sg5
F1.0631779471089198
sa(dp676
g3
S'4-2'
p677
sg5
F0.920512410951027
sa(dp678
g3
S'4-3-1'
p679
sg5
F0.0
sa(dp680
g3
S'4-2-1'
p681
sg5
F0.0
sa(dp682
g3
S'4'
p683
sg5
F0.0
sa(dp684
g3
S'4-1'
p685
sg5
F1.219935985368084
sa(dp686
g3
S'4-2'
p687
sg5
F0.9034927589144457
sa(dp688
g3
S'4-2-1'
p689
sg5
F0.0
sa(dp690
g3
S'4'
p691
sg5
F0.0
sa(dp692
g3
S'4-1'
p693
sg5
F0.9502337614582512
sa(dp694
g3
S'4-2'
p695
sg5
F0.9075594050426267
sa(dp696
g3
S'4-2-1'
p697
sg5
F0.0
sa(dp698
g3
S'4-3-1'
p699
sg5
F0.0
sasI5
(lp700
(dp701
g3
S'5-2'
p702
sg5
F1.1060169501742034
sa(dp703
g3
S'5-3-1'
p704
sg5
F0.9135258827055988
sa(dp705
g3
S'5-3'
p706
sg5
F0.42187908013160874
sa(dp707
g3
S'5-2'
p708
sg5
F1.4039669607237175
sa(dp709
g3
S'5-3-1'
p710
sg5
F0.9353055758461164
sa(dp711
g3
S'5-3'
p712
sg5
F0.38231544977813636
sa(dp713
g3
S'5-4-2'
p714
sg5
F0.0
sa(dp715
g3
S'5-2-1'
p716
sg5
F0.0
sa(dp717
g3
S'5-2'
p718
sg5
F1.029337959664178
sa(dp719
g3
S'5-3-1'
p720
sg5
F0.9290521459601264
sa(dp721
g3
S'5-3'
p722
sg5
F0.8428483982860642
sa(dp723
g3
S'5-4-2'
p724
sg5
F0.0
sa(dp725
g3
S'5-2'
p726
sg5
F1.2486737400530505
sa(dp727
g3
S'5-3-1'
p728
sg5
F0.8710370063518366
sa(dp729
g3
S'5-3'
p730
sg5
F0.7951858108108109
sa(dp731
g3
S'5-4-2'
p732
sg5
F0.0
sa(dp733
g3
S'5-4-2'
p734
sg5
F7.572916666666666
sa(dp735
g3
S'5-2'
p736
sg5
F1.3065095846645367
sa(dp737
g3
S'5-3-1'
p738
sg5
F0.8264430215293244
sa(dp739
g3
S'5-3'
p740
sg5
F0.253486750348675
sa(dp741
g3
S'5-2-1'
p742
sg5
F0.0
sa(dp743
g3
S'5-3'
p744
sg5
F1.0781555990742389
sa(dp745
g3
S'5-3-1'
p746
sg5
F0.9728461377403308
sa(dp747
g3
S'5-2'
p748
sg5
F0.7787684318816441
sa(dp749
g3
S'5-2'
p750
sg5
F1.1069182389937107
sa(dp751
g3
S'5-3-1'
p752
sg5
F0.9287851585876721
sa(dp753
g3
S'5-3'
p754
sg5
F0.6490872210953347
sa(dp755
g3
S'5-3-1'
p756
sg5
F0.8785237127090163
sa(dp757
g3
S'5-2'
p758
sg5
F0.8502356051028618
sa(dp759
g3
S'5-3'
p760
sg5
F0.7547572331744993
sa(dp761
g3
S'5-4-2'
p762
sg5
F0.0
sa(dp763
g3
S'5-3-1'
p764
sg5
F1.0898812211204567
sa(dp765
g3
S'5-2'
p766
sg5
F0.8795736507336733
sa(dp767
g3
S'5-3'
p768
sg5
F0.5678835042249757
sa(dp769
g3
S'5-2'
p770
sg5
F1.067735155018392
sa(dp771
g3
S'5-3-1'
p772
sg5
F0.9301413800195159
sa(dp773
g3
S'5-3'
p774
sg5
F0.7905346820809249
sa(dp775
g3
S'5-4-1'
p776
sg5
F0.0
sa(dp777
g3
S'5-2-1'
p778
sg5
F0.0
sa(dp779
g3
S'5-2'
p780
sg5
F1.0267102584664733
sa(dp781
g3
S'5-3-1'
p782
sg5
F0.9181427523320406
sa(dp783
g3
S'5-3'
p784
sg5
F0.8630541871921182
sa(dp785
g3
S'5-4-1'
p786
sg5
F0.0
sa(dp787
g3
S'5-2-1'
p788
sg5
F0.0
sa(dp789
g3
S'5-1'
p790
sg5
F0.0
sa(dp791
g3
S'5-2'
p792
sg5
F1.0044333910034602
sa(dp793
g3
S'5-3-1'
p794
sg5
F0.9813817153221628
sa(dp795
g3
S'5-3'
p796
sg5
F0.7880047505938241
sa(dp797
g3
S'5-3'
p798
sg5
F1.5784582608908586
sa(dp799
g3
S'5-2'
p800
sg5
F1.117121554374225
sa(dp801
g3
S'5-3-1'
p802
sg5
F0.686140105732886
sa(dp803
g3
S'5-4-2'
p804
sg5
F0.0
sa(dp805
g3
S'5-2-1'
p806
sg5
F0.0
sa(dp807
g3
S'5-2'
p808
sg5
F1.0447957839262187
sa(dp809
g3
S'5-3-1'
p810
sg5
F0.9293822961669271
sa(dp811
g3
S'5-3'
p812
sg5
F0.43428258488499455
sa(dp813
g3
S'5-2-1'
p814
sg5
F0.0
sa(dp815
g3
S'5-3-1'
p816
sg5
F0.9009173297966401
sa(dp817
g3
S'5-2'
p818
sg5
F0.8650730889048646
sa(dp819
g3
S'5-3'
p820
sg5
F0.82524803504703
sa(dp821
g3
S'5-4-1'
p822
sg5
F0.0
sa(dp823
g3
S'5-2-1'
p824
sg5
F0.0
sa(dp825
g3
S'5-1'
p826
sg5
F0.0
sa(dp827
g3
S'5-2'
p828
sg5
F1.2667442358101961
sa(dp829
g3
S'5-3-1'
p830
sg5
F0.8781170887471662
sa(dp831
g3
S'5-3'
p832
sg5
F0.7108857833350846
sa(dp833
g3
S'5-4-2'
p834
sg5
F0.0
sa(dp835
g3
S'5-4-1'
p836
sg5
F0.0
sa(dp837
g3
S'5-2-1'
p838
sg5
F0.0
sa(dp839
g3
S'5-3-1'
p840
sg5
F1.0444163226355208
sa(dp841
g3
S'5-2'
p842
sg5
F0.9991664351208669
sa(dp843
g3
S'5-3'
p844
sg5
F0.43727316945411004
sa(dp845
g3
S'5-2'
p846
sg5
F1.0530224839617104
sa(dp847
g3
S'5-3-1'
p848
sg5
F1.0020284252726763
sa(dp849
g3
S'5-3'
p850
sg5
F0.58005113698183
sa(dp851
g3
S'5-3-1'
p852
sg5
F1.0462096043491391
sa(dp853
g3
S'5-2'
p854
sg5
F0.9114510244176256
sa(dp855
g3
S'5-3'
p856
sg5
F0.504861160938509
sa(dp857
g3
S'5-4-2'
p858
sg5
F0.0
sa(dp859
g3
S'5-2-1'
p860
sg5
F0.0
sa(dp861
g3
S'5-2'
p862
sg5
F1.2986394557823129
sa(dp863
g3
S'5-3-1'
p864
sg5
F0.9190639269406392
sa(dp865
g3
S'5-3'
p866
sg5
F0.5206093189964157
sa(dp867
g3
S'5-4-2'
p868
sg5
F0.0
sa(dp869
g3
S'5-2'
p870
sg5
F1.0770358868184955
sa(dp871
g3
S'5-3-1'
p872
sg5
F0.9611182934712347
sa(dp873
g3
S'5-3'
p874
sg5
F0.8764478764478765
sa(dp875
g3
S'5-2'
p876
sg5
F1.067735155018392
sa(dp877
g3
S'5-3-1'
p878
sg5
F0.9301413800195159
sa(dp879
g3
S'5-3'
p880
sg5
F0.7905346820809249
sa(dp881
g3
S'5-4-1'
p882
sg5
F0.0
sa(dp883
g3
S'5-2-1'
p884
sg5
F0.0
sa(dp885
g3
S'5-2'
p886
sg5
F1.2667442358101961
sa(dp887
g3
S'5-3-1'
p888
sg5
F0.8781170887471662
sa(dp889
g3
S'5-3'
p890
sg5
F0.7108857833350846
sa(dp891
g3
S'5-4-2'
p892
sg5
F0.0
sa(dp893
g3
S'5-4-1'
p894
sg5
F0.0
sa(dp895
g3
S'5-2-1'
p896
sg5
F0.0
sa(dp897
g3
S'5-3-1'
p898
sg5
F1.009272397294176
sa(dp899
g3
S'5-2'
p900
sg5
F0.8369575977561459
sa(dp901
g3
S'5-3'
p902
sg5
F0.5491350754508648
sa(dp903
g3
S'5-3-2'
p904
sg5
F0.0
sa(dp905
g3
S'5-1'
p906
sg5
F0.0
sa(dp907
g3
S'5-3'
p908
sg5
F1.224864864864865
sa(dp909
g3
S'5-3-1'
p910
sg5
F0.9609774157719363
sa(dp911
g3
S'5-2'
p912
sg5
F0.6520091175512863
sa(dp913
g3
S'5-4-2'
p914
sg5
F0.0
sa(dp915
g3
S'5-3-1'
p916
sg5
F1.0575445142437325
sa(dp917
g3
S'5-2'
p918
sg5
F0.8223043332213638
sa(dp919
g3
S'5-3'
p920
sg5
F0.4227666345940344
sa(dp921
g3
S'5-3-1'
p922
sg5
F1.0883293921268604
sa(dp923
g3
S'5-2'
p924
sg5
F0.9964782205746061
sa(dp925
g3
S'5-3'
p926
sg5
F0.5361766945925361
sa(dp927
g3
S'5-2'
p928
sg5
F1.1069182389937107
sa(dp929
g3
S'5-3-1'
p930
sg5
F0.9287851585876721
sa(dp931
g3
S'5-3'
p932
sg5
F0.6490872210953347
sa(dp933
g3
S'5-3-1'
p934
sg5
F1.0077046770986426
sa(dp935
g3
S'5-2'
p936
sg5
F0.9283898305084747
sa(dp937
g3
S'5-3'
p938
sg5
F0.6885606536769326
sa(dp939
g3
S'5-4-1'
p940
sg5
F0.0
sa(dp941
g3
S'5-2-1'
p942
sg5
F0.0
sa(dp943
g3
S'5-2'
p944
sg5
F1.3584905660377358
sa(dp945
g3
S'5-3-1'
p946
sg5
F0.908296943231441
sa(dp947
g3
S'5-3'
p948
sg5
F0.31295843520782396
sa(dp949
g3
S'5-3-1'
p950
sg5
F0.9009173297966401
sa(dp951
g3
S'5-2'
p952
sg5
F0.8650730889048646
sa(dp953
g3
S'5-3'
p954
sg5
F0.82524803504703
sa(dp955
g3
S'5-4-1'
p956
sg5
F0.0
sa(dp957
g3
S'5-2-1'
p958
sg5
F0.0
sa(dp959
g3
S'5-1'
p960
sg5
F0.0
sa(dp961
g3
S'5-2'
p962
sg5
F1.127246955737388
sa(dp963
g3
S'5-3-1'
p964
sg5
F0.9591291061879297
sa(dp965
g3
S'5-3'
p966
sg5
F0.6497326203208555
sa(dp967
g3
S'5-4-2'
p968
sg5
F0.0
sa(dp969
g3
S'5-2-1'
p970
sg5
F0.0
sa(dp971
g3
S'5-3'
p972
sg5
F1.3729338842975207
sa(dp973
g3
S'5-3-1'
p974
sg5
F0.9111626139251355
sa(dp975
g3
S'5-2'
p976
sg5
F0.8222919520926327
sa(dp977
g3
S'5-2-1'
p978
sg5
F0.0
sa(dp979
g3
S'5-2'
p980
sg5
F1.0644420394420393
sa(dp981
g3
S'5-3-1'
p982
sg5
F0.9095234230369367
sa(dp983
g3
S'5-3'
p984
sg5
F0.8534634799002615
sa(dp985
g3
S'5-4-2'
p986
sg5
F0.0
sa(dp987
g3
S'5-2-1'
p988
sg5
F0.0
sa(dp989
g3
S'5-3-1'
p990
sg5
F0.9900497909418785
sa(dp991
g3
S'5-3'
p992
sg5
F0.8608399029714979
sa(dp993
g3
S'5-2'
p994
sg5
F0.7693049551047556
sa(dp995
g3
S'5-4-2'
p996
sg5
F0.0
sa(dp997
g3
S'5-3-2'
p998
sg5
F0.0
sa(dp999
g3
S'5-2-1'
p1000
sg5
F0.0
sa(dp1001
g3
S'5-2'
p1002
sg5
F1.1574522210604608
sa(dp1003
g3
S'5-3-1'
p1004
sg5
F0.9361614927795947
sa(dp1005
g3
S'5-3'
p1006
sg5
F0.7295537694811741
sa(dp1007
g3
S'5-2'
p1008
sg5
F1.0996454082943625
sa(dp1009
g3
S'5-3-1'
p1010
sg5
F0.9559921675350967
sa(dp1011
g3
S'5-3'
p1012
sg5
F0.42121425372656895
sa(dp1013
g3
S'5-2-1'
p1014
sg5
F0.0
sa(dp1015
g3
S'5-4-2'
p1016
sg5
F7.572916666666666
sa(dp1017
g3
S'5-2'
p1018
sg5
F1.3065095846645367
sa(dp1019
g3
S'5-3-1'
p1020
sg5
F0.8264430215293244
sa(dp1021
g3
S'5-3'
p1022
sg5
F0.253486750348675
sa(dp1023
g3
S'5-2-1'
p1024
sg5
F0.0
sa(dp1025
g3
S'5-2'
p1026
sg5
F0.9750266619267687
sa(dp1027
g3
S'5-3'
p1028
sg5
F0.9612628750559785
sa(dp1029
g3
S'5-3-1'
p1030
sg5
F0.9092693752133835
sa(dp1031
g3
S'5-3-1'
p1032
sg5
F1.0010470685179333
sa(dp1033
g3
S'5-2'
p1034
sg5
F0.9990288284604376
sa(dp1035
g3
S'5-3'
p1036
sg5
F0.6640698944302875
sa(dp1037
g3
S'5-4-2'
p1038
sg5
F0.0
sa(dp1039
g3
S'5-2-1'
p1040
sg5
F0.0
sasI6
(lp1041
(dp1042
g3
S'6-4-1'
p1043
sg5
F0.9496082864503917
sa(dp1044
g3
S'6-4-2'
p1045
sg5
F0.925587097491679
sa(dp1046
g3
S'6-3-1'
p1047
sg5
F0.7250878114887851
sa(dp1048
g3
S'6-3'
p1049
sg5
F0.33720481555795645
sa(dp1050
g3
S'6-4'
p1051
sg5
F0.0
sa(dp1052
g3
S'6-4-2-1'
p1053
sg5
F0.0
sa(dp1054
g3
S'6-3-1'
p1055
sg5
F1.1270383275261324
sa(dp1056
g3
S'6-4-1'
p1057
sg5
F1.1161490683229813
sa(dp1058
g3
S'6-4-2'
p1059
sg5
F0.8457552116638956
sa(dp1060
g3
S'6-3'
p1061
sg5
F0.41629343629343635
sa(dp1062
g3
S'6-5-3-1'
p1063
sg5
F0.0
sa(dp1064
g3
S'6-5-3-1'
p1065
sg5
F4.493975903614458
sa(dp1066
g3
S'6-3-1'
p1067
sg5
F1.1364076997645756
sa(dp1068
g3
S'6-4-2'
p1069
sg5
F0.9878998753635231
sa(dp1070
g3
S'6-3'
p1071
sg5
F0.8642261353104725
sa(dp1072
g3
S'6-4-1'
p1073
sg5
F0.6549924393932004
sa(dp1074
g3
S'6-4-2-1'
p1075
sg5
F0.0
sa(dp1076
g3
S'6-4-1'
p1077
sg5
F0.9922337562475971
sa(dp1078
g3
S'6-4-2'
p1079
sg5
F0.9902920072138445
sa(dp1080
g3
S'6-3-1'
p1081
sg5
F0.637183078359549
sa(dp1082
g3
S'6-3'
p1083
sg5
F0.27265043948613926
sa(dp1084
g3
S'6-4'
p1085
sg5
F0.0
sa(dp1086
g3
S'6-5-3-1'
p1087
sg5
F0.0
sa(dp1088
g3
S'6-4-2-1'
p1089
sg5
F0.0
sa(dp1090
g3
S'6-4-1'
p1091
sg5
F1.2580549807862844
sa(dp1092
g3
S'6-4-2'
p1093
sg5
F0.9340936905970889
sa(dp1094
g3
S'6-3-1'
p1095
sg5
F0.8913322338281107
sa(dp1096
g3
S'6-3'
p1097
sg5
F0.2772457820337437
sa(dp1098
g3
S'6-4'
p1099
sg5
F0.0
sa(dp1100
g3
S'6-5-3-1'
p1101
sg5
F0.0
sa(dp1102
g3
S'6-3-2'
p1103
sg5
F0.0
sa(dp1104
g3
S'6-4-2-1'
p1105
sg5
F0.0
sa(dp1106
g3
S'6-3'
p1107
sg5
F1.3073593073593075
sa(dp1108
g3
S'6-4-2'
p1109
sg5
F0.970615243342516
sa(dp1110
g3
S'6-3-1'
p1111
sg5
F0.6906803887935963
sa(dp1112
g3
S'6-4-1'
p1113
sg5
F0.5546372819100092
sa(dp1114
g3
S'6-4-2-1'
p1115
sg5
F0.0
sa(dp1116
g3
S'6-4-1'
p1117
sg5
F1.4390184447875194
sa(dp1118
g3
S'6-4-2'
p1119
sg5
F0.8813155497418887
sa(dp1120
g3
S'6-3-1'
p1121
sg5
F0.7305502846299811
sa(dp1122
g3
S'6-3'
p1123
sg5
F0.3652751423149905
sa(dp1124
g3
S'6-4-2-1'
p1125
sg5
F0.0
sa(dp1126
g3
S'6-4-1'
p1127
sg5
F1.1914938114341123
sa(dp1128
g3
S'6-4-2'
p1129
sg5
F0.936402845798819
sa(dp1130
g3
S'6-3-1'
p1131
sg5
F0.7418596268387716
sa(dp1132
g3
S'6-3'
p1133
sg5
F0.5879738799201886
sa(dp1134
g3
S'6-4'
p1135
sg5
F0.0
sa(dp1136
g3
S'6-5-3-1'
p1137
sg5
F0.0
sa(dp1138
g3
S'6-4-2-1'
p1139
sg5
F0.0
sa(dp1140
g3
S'6-4-1'
p1141
sg5
F1.0665584415584417
sa(dp1142
g3
S'6-4-2'
p1143
sg5
F0.9970385431400284
sa(dp1144
g3
S'6-3-1'
p1145
sg5
F0.9289379974863847
sa(dp1146
g3
S'6-3'
p1147
sg5
F0.493984962406015
sa(dp1148
g3
S'6-4-2-1'
p1149
sg5
F0.0
sa(dp1150
g3
S'6-4-1'
p1151
sg5
F1.2156862745098038
sa(dp1152
g3
S'6-4-2'
p1153
sg5
F0.9971236816874401
sa(dp1154
g3
S'6-3-1'
p1155
sg5
F0.48859934853420195
sa(dp1156
g3
S'6-3'
p1157
sg5
F0.3278688524590164
sa(dp1158
g3
S'6-5-2'
p1159
sg5
F0.0
sa(dp1160
g3
S'6-4-2-1'
p1161
sg5
F0.0
sa(dp1162
g3
S'6-4-1'
p1163
sg5
F1.2616279069767442
sa(dp1164
g3
S'6-3-1'
p1165
sg5
F0.9333333333333332
sa(dp1166
g3
S'6-4-2'
p1167
sg5
F0.8808290155440415
sa(dp1168
g3
S'6-3'
p1169
sg5
F0.7000000000000001
sa(dp1170
g3
S'6-2'
p1171
sg5
F0.0
sa(dp1172
g3
S'6-5-2'
p1173
sg5
F0.0
sa(dp1174
g3
S'6-4-2-1'
p1175
sg5
F0.0
sa(dp1176
g3
S'6-4-1'
p1177
sg5
F1.1363636363636365
sa(dp1178
g3
S'6-3-1'
p1179
sg5
F0.9635003400589435
sa(dp1180
g3
S'6-4-2'
p1181
sg5
F0.9009740259740259
sa(dp1182
g3
S'6-3'
p1183
sg5
F0.7660878447395302
sa(dp1184
g3
S'6-4-2'
p1185
sg5
F1.260418670019972
sa(dp1186
g3
S'6-3'
p1187
sg5
F0.7336275375110326
sa(dp1188
g3
S'6-3-1'
p1189
sg5
F0.4890850250073551
sa(dp1190
g3
S'6-4-1'
p1191
sg5
F0.3466221851542952
sa(dp1192
g3
S'6-4'
p1193
sg5
F0.0
sa(dp1194
g3
S'6-5-3-1'
p1195
sg5
F0.0
sa(dp1196
g3
S'6-4-2-1'
p1197
sg5
F0.0
sa(dp1198
g3
S'6-4-1'
p1199
sg5
F1.2090455840455843
sa(dp1200
g3
S'6-4-2'
p1201
sg5
F0.9545551786314599
sa(dp1202
g3
S'6-3-1'
p1203
sg5
F0.647488874761602
sa(dp1204
g3
S'6-3'
p1205
sg5
F0.3054430949167791
sa(dp1206
g3
S'6-4'
p1207
sg5
F0.0
sa(dp1208
g3
S'6-4-2-1'
p1209
sg5
F0.0
sa(dp1210
g3
S'6-3-1'
p1211
sg5
F1.0298691636271253
sa(dp1212
g3
S'6-4-2'
p1213
sg5
F1.0280386105456694
sa(dp1214
g3
S'6-4-1'
p1215
sg5
F0.8334135683602429
sa(dp1216
g3
S'6-3'
p1217
sg5
F0.2739553440190383
sa(dp1218
g3
S'6-4'
p1219
sg5
F0.0
sa(dp1220
g3
S'6-2'
p1221
sg5
F0.0
sa(dp1222
g3
S'6-5-2'
p1223
sg5
F0.0
sa(dp1224
g3
S'6-3-2'
p1225
sg5
F0.0
sa(dp1226
g3
S'6-4-1'
p1227
sg5
F1.586172839506173
sa(dp1228
g3
S'6-3-1'
p1229
sg5
F0.8936543606206528
sa(dp1230
g3
S'6-4-2'
p1231
sg5
F0.8482314931872454
sa(dp1232
g3
S'6-3'
p1233
sg5
F0.3720463320463321
sa(dp1234
g3
S'6-4'
p1235
sg5
F0.0
sa(dp1236
g3
S'6-5-2'
p1237
sg5
F0.0
sa(dp1238
g3
S'6-5-3-1'
p1239
sg5
F0.0
sa(dp1240
g3
S'6-4-2-1'
p1241
sg5
F0.0
sa(dp1242
g3
S'6-3'
p1243
sg5
F1.3763440860215055
sa(dp1244
g3
S'6-3-1'
p1245
sg5
F1.1510791366906474
sa(dp1246
g3
S'6-4-1'
p1247
sg5
F1.130890052356021
sa(dp1248
g3
S'6-4-2'
p1249
sg5
F0.860832137733142
sa(dp1250
g3
S'6-4'
p1251
sg5
F0.0
sa(dp1252
g3
S'6-4-1'
p1253
sg5
F1.0951845862910077
sa(dp1254
g3
S'6-4-2'
p1255
sg5
F0.994392523364486
sa(dp1256
g3
S'6-3-1'
p1257
sg5
F0.6851955784387888
sa(dp1258
g3
S'6-3'
p1259
sg5
F0.4864317081409751
sa(dp1260
g3
S'6-4-2-1'
p1261
sg5
F0.0
sa(dp1262
g3
S'6-3-1'
p1263
sg5
F1.0537679488523215
sa(dp1264
g3
S'6-4-2'
p1265
sg5
F0.8802892509789062
sa(dp1266
g3
S'6-4-1'
p1267
sg5
F0.7750141322781232
sa(dp1268
g3
S'6-3'
p1269
sg5
F0.47753396029258094
sa(dp1270
g3
S'6-4'
p1271
sg5
F0.0
sa(dp1272
g3
S'6-5-3'
p1273
sg5
F0.0
sa(dp1274
g3
S'6-5-3-1'
p1275
sg5
F0.0
sa(dp1276
g3
S'6-4-1'
p1277
sg5
F1.0031446540880504
sa(dp1278
g3
S'6-3-1'
p1279
sg5
F0.949404761904762
sa(dp1280
g3
S'6-3'
p1281
sg5
F0.9390243902439024
sa(dp1282
g3
S'6-4-2'
p1283
sg5
F0.9196428571428571
sa(dp1284
g3
S'6-5-3'
p1285
sg5
F0.0
sa(dp1286
g3
S'6-4-1'
p1287
sg5
F1.3967415857239667
sa(dp1288
g3
S'6-4-2'
p1289
sg5
F0.9014088540175249
sa(dp1290
g3
S'6-3'
p1291
sg5
F0.7996088193456614
sa(dp1292
g3
S'6-3-1'
p1293
sg5
F0.7586032388663969
sa(dp1294
g3
S'6-4-1'
p1295
sg5
F1.2156862745098038
sa(dp1296
g3
S'6-4-2'
p1297
sg5
F0.9971236816874401
sa(dp1298
g3
S'6-3-1'
p1299
sg5
F0.48859934853420195
sa(dp1300
g3
S'6-3'
p1301
sg5
F0.3278688524590164
sa(dp1302
g3
S'6-5-2'
p1303
sg5
F0.0
sa(dp1304
g3
S'6-4-2-1'
p1305
sg5
F0.0
sa(dp1306
g3
S'6-4-1'
p1307
sg5
F1.586172839506173
sa(dp1308
g3
S'6-3-1'
p1309
sg5
F0.8936543606206528
sa(dp1310
g3
S'6-4-2'
p1311
sg5
F0.8482314931872454
sa(dp1312
g3
S'6-3'
p1313
sg5
F0.3720463320463321
sa(dp1314
g3
S'6-4'
p1315
sg5
F0.0
sa(dp1316
g3
S'6-5-2'
p1317
sg5
F0.0
sa(dp1318
g3
S'6-5-3-1'
p1319
sg5
F0.0
sa(dp1320
g3
S'6-4-2-1'
p1321
sg5
F0.0
sa(dp1322
g3
S'6-4-2'
p1323
sg5
F1.0481527604815275
sa(dp1324
g3
S'6-3-1'
p1325
sg5
F0.8986475798797849
sa(dp1326
g3
S'6-4-1'
p1327
sg5
F0.6543644623311687
sa(dp1328
g3
S'6-3'
p1329
sg5
F0.4397422500870777
sa(dp1330
g3
S'6-4'
p1331
sg5
F0.0
sa(dp1332
g3
S'6-4-2-1'
p1333
sg5
F0.0
sa(dp1334
g3
S'6-4-1'
p1335
sg5
F1.0365618146705509
sa(dp1336
g3
S'6-3'
p1337
sg5
F0.9571564582672167
sa(dp1338
g3
S'6-4-2'
p1339
sg5
F0.9541210783784202
sa(dp1340
g3
S'6-3-1'
p1341
sg5
F0.8689973107952363
sa(dp1342
g3
S'6-4'
p1343
sg5
F0.0
sa(dp1344
g3
S'6-4-2-1'
p1345
sg5
F0.0
sa(dp1346
g3
S'6-4-1'
p1347
sg5
F1.2056943056943055
sa(dp1348
g3
S'6-4-2'
p1349
sg5
F1.0005441612063548
sa(dp1350
g3
S'6-3-1'
p1351
sg5
F0.5417744020685197
sa(dp1352
g3
S'6-3'
p1353
sg5
F0.2528280542986426
sa(dp1354
g3
S'6-4'
p1355
sg5
F0.0
sa(dp1356
g3
S'6-4-2-1'
p1357
sg5
F0.0
sa(dp1358
g3
S'6-3-1'
p1359
sg5
F1.1881685645272602
sa(dp1360
g3
S'6-4-1'
p1361
sg5
F1.0918305728088336
sa(dp1362
g3
S'6-4-2'
p1363
sg5
F0.8873236079328756
sa(dp1364
g3
S'6-3'
p1365
sg5
F0.8868374032162001
sa(dp1366
g3
S'6-4-1'
p1367
sg5
F1.4390184447875194
sa(dp1368
g3
S'6-4-2'
p1369
sg5
F0.8813155497418887
sa(dp1370
g3
S'6-3-1'
p1371
sg5
F0.7305502846299811
sa(dp1372
g3
S'6-3'
p1373
sg5
F0.3652751423149905
sa(dp1374
g3
S'6-4-2-1'
p1375
sg5
F0.0
sa(dp1376
g3
S'6-4-1'
p1377
sg5
F1.1269216781829603
sa(dp1378
g3
S'6-4-2'
p1379
sg5
F0.9560501567398119
sa(dp1380
g3
S'6-3-1'
p1381
sg5
F0.9228970505705556
sa(dp1382
g3
S'6-3'
p1383
sg5
F0.23884968712554921
sa(dp1384
g3
S'6-5-2'
p1385
sg5
F0.0
sa(dp1386
g3
S'6-4-2-1'
p1387
sg5
F0.0
sa(dp1388
g3
S'6-4-2'
p1389
sg5
F0.9410978184377198
sa(dp1390
g3
S'6-3-1'
p1391
sg5
F0.8385363169479091
sa(dp1392
g3
S'6-4-1'
p1393
sg5
F0.7070207278632151
sa(dp1394
g3
S'6-3'
p1395
sg5
F0.4549634273772205
sa(dp1396
g3
S'6-4-2-1'
p1397
sg5
F0.0
sa(dp1398
g3
S'6-3-1'
p1399
sg5
F1.0298691636271253
sa(dp1400
g3
S'6-4-2'
p1401
sg5
F1.0280386105456694
sa(dp1402
g3
S'6-4-1'
p1403
sg5
F0.8334135683602429
sa(dp1404
g3
S'6-3'
p1405
sg5
F0.2739553440190383
sa(dp1406
g3
S'6-4'
p1407
sg5
F0.0
sa(dp1408
g3
S'6-2'
p1409
sg5
F0.0
sa(dp1410
g3
S'6-5-2'
p1411
sg5
F0.0
sa(dp1412
g3
S'6-3-2'
p1413
sg5
F0.0
sa(dp1414
g3
S'6-4-2'
p1415
sg5
F0.9555893255315221
sa(dp1416
g3
S'6-3-1'
p1417
sg5
F0.9523940183838662
sa(dp1418
g3
S'6-3'
p1419
sg5
F0.8221005815942525
sa(dp1420
g3
S'6-4-1'
p1421
sg5
F0.7915410840456545
sa(dp1422
g3
S'6-4'
p1423
sg5
F0.0
sa(dp1424
g3
S'6-5-3'
p1425
sg5
F0.0
sa(dp1426
g3
S'6-3'
p1427
sg5
F1.0659611992945326
sa(dp1428
g3
S'6-4-2'
p1429
sg5
F0.9493193717277486
sa(dp1430
g3
S'6-4-1'
p1431
sg5
F0.8325068870523415
sa(dp1432
g3
S'6-3-1'
p1433
sg5
F0.809103078982597
sa(dp1434
g3
S'6-4-2-1'
p1435
sg5
F0.0
sa(dp1436
g3
S'6-3-1'
p1437
sg5
F0.9791718426501036
sa(dp1438
g3
S'6-4-2'
p1439
sg5
F0.9592757529591001
sa(dp1440
g3
S'6-4-1'
p1441
sg5
F0.765975365827982
sa(dp1442
g3
S'6-3'
p1443
sg5
F0.6052573203194321
sa(dp1444
g3
S'6-4'
p1445
sg5
F0.0
sa(dp1446
g3
S'6-5-3-1'
p1447
sg5
F0.0
sa(dp1448
g3
S'6-4-1'
p1449
sg5
F1.5464513796842991
sa(dp1450
g3
S'6-4-2'
p1451
sg5
F0.8312526019591814
sa(dp1452
g3
S'6-3'
p1453
sg5
F0.6587525414835705
sa(dp1454
g3
S'6-3-1'
p1455
sg5
F0.6360621761658032
sa(dp1456
g3
S'6-4'
p1457
sg5
F0.0
sa(dp1458
g3
S'6-5-3-1'
p1459
sg5
F0.0
sa(dp1460
g3
S'6-4-2-1'
p1461
sg5
F0.0
sa(dp1462
g3
S'6-3-1'
p1463
sg5
F0.9897459228669419
sa(dp1464
g3
S'6-4-2'
p1465
sg5
F0.9691880934599382
sa(dp1466
g3
S'6-4-1'
p1467
sg5
F0.7927257927257927
sa(dp1468
g3
S'6-3'
p1469
sg5
F0.40361067503924647
sa(dp1470
g3
S'6-4'
p1471
sg5
F0.0
sa(dp1472
g3
S'6-4-2-1'
p1473
sg5
F0.0
sa(dp1474
g3
S'6-4-1'
p1475
sg5
F1.3362565850635266
sa(dp1476
g3
S'6-4-2'
p1477
sg5
F0.8580844155844155
sa(dp1478
g3
S'6-3-1'
p1479
sg5
F0.6127753303964758
sa(dp1480
g3
S'6-4'
p1481
sg5
F0.0
sa(dp1482
g3
S'6-3'
p1483
sg5
F0.0
sa(dp1484
g3
S'6-4-2-1'
p1485
sg5
F0.0
sa(dp1486
g3
S'6-4-1'
p1487
sg5
F1.2580549807862844
sa(dp1488
g3
S'6-4-2'
p1489
sg5
F0.9340936905970889
sa(dp1490
g3
S'6-3-1'
p1491
sg5
F0.8913322338281107
sa(dp1492
g3
S'6-3'
p1493
sg5
F0.2772457820337437
sa(dp1494
g3
S'6-4'
p1495
sg5
F0.0
sa(dp1496
g3
S'6-5-3-1'
p1497
sg5
F0.0
sa(dp1498
g3
S'6-3-2'
p1499
sg5
F0.0
sa(dp1500
g3
S'6-4-2-1'
p1501
sg5
F0.0
sa(dp1502
g3
S'6-3-1'
p1503
sg5
F1.7649135622108594
sa(dp1504
g3
S'6-4-1'
p1505
sg5
F1.1735882223687102
sa(dp1506
g3
S'6-4-2'
p1507
sg5
F0.7996138996138995
sa(dp1508
g3
S'6-3'
p1509
sg5
F0.5891891891891892
sa(dp1510
g3
S'6-4'
p1511
sg5
F0.0
sa(dp1512
g3
S'6-4-2-1'
p1513
sg5
F0.0
sa(dp1514
g3
S'6-3'
p1515
sg5
F1.0227406621892305
sa(dp1516
g3
S'6-4-1'
p1517
sg5
F1.0085773439810706
sa(dp1518
g3
S'6-4-2'
p1519
sg5
F0.9328844878717002
sa(dp1520
g3
S'6-3-1'
p1521
sg5
F0.8693295628608461
sa(dp1522
g3
S'6-5-3-1'
p1523
sg5
F0.0
sa(dp1524
g3
S'6-4-2-1'
p1525
sg5
F0.0
sasI7
(lp1526
(dp1527
g3
S'7-5-2'
p1528
sg5
F1.2808018813812092
sa(dp1529
g3
S'7-5-3-1'
p1530
sg5
F0.897251332632266
sa(dp1531
g3
S'7-4-1'
p1532
sg5
F0.7356765542462413
sa(dp1533
g3
S'7-4-2'
p1534
sg5
F0.6791304347826088
sa(dp1535
g3
S'7-5-3'
p1536
sg5
F0.34753815145407424
sa(dp1537
g3
S'7-4-2-1'
p1538
sg5
F0.0
sa(dp1539
g3
S'7-5-2'
p1540
sg5
F1.8818260439831975
sa(dp1541
g3
S'7-4-2'
p1542
sg5
F0.9563787185354691
sa(dp1543
g3
S'7-5-3-1'
p1544
sg5
F0.881578947368421
sa(dp1545
g3
S'7-4-1'
p1546
sg5
F0.6016194331983805
sa(dp1547
g3
S'7-5-3'
p1548
sg5
F0.2642247510668563
sa(dp1549
g3
S'7-6-4-2'
p1550
sg5
F0.0
sa(dp1551
g3
S'7-5-2'
p1552
sg5
F1.08093763821318
sa(dp1553
g3
S'7-5-3-1'
p1554
sg5
F0.9564269034360645
sa(dp1555
g3
S'7-4-2'
p1556
sg5
F0.9401643643993705
sa(dp1557
g3
S'7-4-1'
p1558
sg5
F0.6562835660580021
sa(dp1559
g3
S'7-5-3'
p1560
sg5
F0.6410211575450253
sa(dp1561
g3
S'7-6-4-2'
p1562
sg5
F0.0
sa(dp1563
g3
S'7-4-2-1'
p1564
sg5
F0.0
sa(dp1565
g3
S'7-5-2'
p1566
sg5
F1.3829268292682926
sa(dp1567
g3
S'7-5-3'
p1568
sg5
F0.9257142857142857
sa(dp1569
g3
S'7-5-3-1'
p1570
sg5
F0.9204545454545455
sa(dp1571
g3
S'7-4-1'
p1572
sg5
F0.8617021276595745
sa(dp1573
g3
S'7-4-2'
p1574
sg5
F0.7564655172413793
sa(dp1575
g3
S'7-6-4-2'
p1576
sg5
F0.0
sa(dp1577
g3
S'7-4-2-1'
p1578
sg5
F0.0
sa(dp1579
g3
S'7-4'
p1580
sg5
F0.0
sa(dp1581
g3
S'7-6-4-2'
p1582
sg5
F13.253333333333334
sa(dp1583
g3
S'7-5-2'
p1584
sg5
F1.0635390946502057
sa(dp1585
g3
S'7-4-2'
p1586
sg5
F0.8934831460674157
sa(dp1587
g3
S'7-5-3-1'
p1588
sg5
F0.8835555555555556
sa(dp1589
g3
S'7-4-1'
p1590
sg5
F0.7163963963963964
sa(dp1591
g3
S'7-5-3'
p1592
sg5
F0.2989473684210527
sa(dp1593
g3
S'7-5-2-1'
p1594
sg5
F0.0
sa(dp1595
g3
S'7-4-2-1'
p1596
sg5
F0.0
sa(dp1597
g3
S'7-4-1'
p1598
sg5
F2.134782608695652
sa(dp1599
g3
S'7-5-2'
p1600
sg5
F1.0598211532531607
sa(dp1601
g3
S'7-5-3-1'
p1602
sg5
F1.0310029644268774
sa(dp1603
g3
S'7-5-3'
p1604
sg5
F0.7834064619066613
sa(dp1605
g3
S'7-4-2'
p1606
sg5
F0.5366771921301919
sa(dp1607
g3
S'7-4-1'
p1608
sg5
F1.2400163331972234
sa(dp1609
g3
S'7-5-2'
p1610
sg5
F1.175232198142415
sa(dp1611
g3
S'7-4-2'
p1612
sg5
F0.9175048805429025
sa(dp1613
g3
S'7-5-3-1'
p1614
sg5
F0.850745829965464
sa(dp1615
g3
S'7-5-3'
p1616
sg5
F0.7229615521961671
sa(dp1617
g3
S'7-5-2'
p1618
sg5
F1.1032883524711536
sa(dp1619
g3
S'7-4-2'
p1620
sg5
F1.0613451589061345
sa(dp1621
g3
S'7-5-3-1'
p1622
sg5
F0.806934481109517
sa(dp1623
g3
S'7-5-3'
p1624
sg5
F0.678767252788807
sa(dp1625
g3
S'7-4-1'
p1626
sg5
F0.4632855852368048
sa(dp1627
g3
S'7-6-4-2'
p1628
sg5
F0.0
sa(dp1629
g3
S'7-5-2'
p1630
sg5
F1.3020917497082325
sa(dp1631
g3
S'7-4-1'
p1632
sg5
F1.2071668533034716
sa(dp1633
g3
S'7-5-3-1'
p1634
sg5
F1.0613137887655197
sa(dp1635
g3
S'7-4-2'
p1636
sg5
F0.5832465406933492
sa(dp1637
g3
S'7-5-3'
p1638
sg5
F0.5240057925810404
sa(dp1639
g3
S'7-4-1'
p1640
sg5
F1.653316645807259
sa(dp1641
g3
S'7-5-2'
p1642
sg5
F1.0578771112405359
sa(dp1643
g3
S'7-4-2'
p1644
sg5
F1.0075970222113741
sa(dp1645
g3
S'7-5-3'
p1646
sg5
F0.9509461127108185
sa(dp1647
g3
S'7-5-3-1'
p1648
sg5
F0.8507943323314727
sa(dp1649
g3
S'7-5-2-1'
p1650
sg5
F0.0
sa(dp1651
g3
S'7-6-3-1'
p1652
sg5
F0.0
sa(dp1653
g3
S'7-5-2'
p1654
sg5
F1.1674610400042842
sa(dp1655
g3
S'7-5-3-1'
p1656
sg5
F1.0494746771622807
sa(dp1657
g3
S'7-4-2'
p1658
sg5
F0.6995899447316812
sa(dp1659
g3
S'7-5-3'
p1660
sg5
F0.6352598348712967
sa(dp1661
g3
S'7-4-1'
p1662
sg5
F0.38380281690140844
sa(dp1663
g3
S'7-3-1'
p1664
sg5
F0.0
sa(dp1665
g3
S'7-6-3-1'
p1666
sg5
F0.0
sa(dp1667
g3
S'7-5-2'
p1668
sg5
F1.0560862354892206
sa(dp1669
g3
S'7-5-3-1'
p1670
sg5
F0.9536963370779366
sa(dp1671
g3
S'7-4-2'
p1672
sg5
F0.9375227520931926
sa(dp1673
g3
S'7-5-3'
p1674
sg5
F0.8582744173867505
sa(dp1675
g3
S'7-4-1'
p1676
sg5
F0.7168006123230003
sa(dp1677
g3
S'7-5-3'
p1678
sg5
F1.6413802363050483
sa(dp1679
g3
S'7-5-2'
p1680
sg5
F1.5139318885448914
sa(dp1681
g3
S'7-4-2'
p1682
sg5
F0.7943469785575049
sa(dp1683
g3
S'7-5-3-1'
p1684
sg5
F0.6283408717105262
sa(dp1685
g3
S'7-4-1'
p1686
sg5
F0.3784829721362229
sa(dp1687
g3
S'7-6-4-2'
p1688
sg5
F0.0
sa(dp1689
g3
S'7-4-2-1'
p1690
sg5
F0.0
sa(dp1691
g3
S'7-4-1'
p1692
sg5
F1.2293456708526107
sa(dp1693
g3
S'7-4-2'
p1694
sg5
F1.1942215088282504
sa(dp1695
g3
S'7-5-2'
p1696
sg5
F0.9862391112233303
sa(dp1697
g3
S'7-5-3-1'
p1698
sg5
F0.7994105728495119
sa(dp1699
g3
S'7-5-3'
p1700
sg5
F0.34354317377251037
sa(dp1701
g3
S'7-5-2-1'
p1702
sg5
F0.0
sa(dp1703
g3
S'7-4-2'
p1704
sg5
F1.2397534668721109
sa(dp1705
g3
S'7-5-3-1'
p1706
sg5
F0.9125735559024858
sa(dp1707
g3
S'7-4-1'
p1708
sg5
F0.857307249712313
sa(dp1709
g3
S'7-5-3'
p1710
sg5
F0.7631241997439181
sa(dp1711
g3
S'7-5-2'
p1712
sg5
F0.5085324232081911
sa(dp1713
g3
S'7-6-3-1'
p1714
sg5
F0.0
sa(dp1715
g3
S'7-3'
p1716
sg5
F0.0
sa(dp1717
g3
S'7-5-2'
p1718
sg5
F1.398720682302772
sa(dp1719
g3
S'7-4-2'
p1720
sg5
F1.1032163128021861
sa(dp1721
g3
S'7-5-3-1'
p1722
sg5
F0.895432880574638
sa(dp1723
g3
S'7-4-1'
p1724
sg5
F0.7531572904707232
sa(dp1725
g3
S'7-5-3'
p1726
sg5
F0.4501629782123863
sa(dp1727
g3
S'7-5-2-1'
p1728
sg5
F0.0
sa(dp1729
g3
S'7-6-4-2'
p1730
sg5
F0.0
sa(dp1731
g3
S'7-6-3-1'
p1732
sg5
F0.0
sa(dp1733
g3
S'7-5-2'
p1734
sg5
F1.1323221533860286
sa(dp1735
g3
S'7-4-2'
p1736
sg5
F1.0932927768365932
sa(dp1737
g3
S'7-5-3-1'
p1738
sg5
F1.0540715112998544
sa(dp1739
g3
S'7-5-3'
p1740
sg5
F0.37422160719580905
sa(dp1741
g3
S'7-4-1'
p1742
sg5
F0.31737781876100263
sa(dp1743
g3
S'7-5-2'
p1744
sg5
F1.2143742255266419
sa(dp1745
g3
S'7-5-3-1'
p1746
sg5
F1.0668168168168168
sa(dp1747
g3
S'7-4-2'
p1748
sg5
F0.8528481012658228
sa(dp1749
g3
S'7-4-1'
p1750
sg5
F0.4537037037037037
sa(dp1751
g3
S'7-5-3'
p1752
sg5
F0.45370370370370366
sa(dp1753
g3
S'7-5-3-1'
p1754
sg5
F1.0273501157903766
sa(dp1755
g3
S'7-4-1'
p1756
sg5
F0.9911562092720163
sa(dp1757
g3
S'7-5-2'
p1758
sg5
F0.9675572519083968
sa(dp1759
g3
S'7-4-2'
p1760
sg5
F0.8140334075096476
sa(dp1761
g3
S'7-5-3'
p1762
sg5
F0.638587786259542
sa(dp1763
g3
S'7-5-2-1'
p1764
sg5
F0.0
sa(dp1765
g3
S'7-6-4-2'
p1766
sg5
F0.0
sa(dp1767
g3
S'7-6-4-1'
p1768
sg5
F0.0
sa(dp1769
g3
S'7-5-2'
p1770
sg5
F1.7809944815232153
sa(dp1771
g3
S'7-5-3-1'
p1772
sg5
F0.8592358191211309
sa(dp1773
g3
S'7-4-1'
p1774
sg5
F0.856115107913669
sa(dp1775
g3
S'7-4-2'
p1776
sg5
F0.7413780315953423
sa(dp1777
g3
S'7-5-3'
p1778
sg5
F0.5707434052757793
sa(dp1779
g3
S'7-5-2'
p1780
sg5
F1.3375000000000001
sa(dp1781
g3
S'7-5-3-1'
p1782
sg5
F0.9970646178092988
sa(dp1783
g3
S'7-4-1'
p1784
sg5
F0.8718518518518519
sa(dp1785
g3
S'7-4-2'
p1786
sg5
F0.8098623853211009
sa(dp1787
g3
S'7-5-3'
p1788
sg5
F0.7402515723270441
sa(dp1789
g3
S'7-4-1'
p1790
sg5
F1.653316645807259
sa(dp1791
g3
S'7-5-2'
p1792
sg5
F1.0578771112405359
sa(dp1793
g3
S'7-4-2'
p1794
sg5
F1.0075970222113741
sa(dp1795
g3
S'7-5-3'
p1796
sg5
F0.9509461127108185
sa(dp1797
g3
S'7-5-3-1'
p1798
sg5
F0.8507943323314727
sa(dp1799
g3
S'7-5-2-1'
p1800
sg5
F0.0
sa(dp1801
g3
S'7-6-3-1'
p1802
sg5
F0.0
sa(dp1803
g3
S'7-5-2'
p1804
sg5
F1.398720682302772
sa(dp1805
g3
S'7-4-2'
p1806
sg5
F1.1032163128021861
sa(dp1807
g3
S'7-5-3-1'
p1808
sg5
F0.895432880574638
sa(dp1809
g3
S'7-4-1'
p1810
sg5
F0.7531572904707232
sa(dp1811
g3
S'7-5-3'
p1812
sg5
F0.4501629782123863
sa(dp1813
g3
S'7-5-2-1'
p1814
sg5
F0.0
sa(dp1815
g3
S'7-6-4-2'
p1816
sg5
F0.0
sa(dp1817
g3
S'7-6-3-1'
p1818
sg5
F0.0
sa(dp1819
g3
S'7-4-2'
p1820
sg5
F1.0117342982682862
sa(dp1821
g3
S'7-5-2'
p1822
sg5
F0.9389998168162668
sa(dp1823
g3
S'7-4-1'
p1824
sg5
F0.9309655937846837
sa(dp1825
g3
S'7-5-3-1'
p1826
sg5
F0.8840896096470712
sa(dp1827
g3
S'7-5-3'
p1828
sg5
F0.7475364754411427
sa(dp1829
g3
S'7-5-1'
p1830
sg5
F0.0
sa(dp1831
g3
S'7-4'
p1832
sg5
F0.0
sa(dp1833
g3
S'7-4-1'
p1834
sg5
F1.2751895991332611
sa(dp1835
g3
S'7-5-3'
p1836
sg5
F1.1841046277665994
sa(dp1837
g3
S'7-4-2'
p1838
sg5
F0.9121571534469979
sa(dp1839
g3
S'7-5-3-1'
p1840
sg5
F0.884131455399061
sa(dp1841
g3
S'7-5-2'
p1842
sg5
F0.8197647422999536
sa(dp1843
g3
S'7-4-2-1'
p1844
sg5
F0.0
sa(dp1845
g3
S'7-5-2'
p1846
sg5
F1.1363227547218298
sa(dp1847
g3
S'7-5-3-1'
p1848
sg5
F1.107647372973075
sa(dp1849
g3
S'7-4-1'
p1850
sg5
F0.5816890292028414
sa(dp1851
g3
S'7-4-2'
p1852
sg5
F0.47323853223282003
sa(dp1853
g3
S'7-5-3'
p1854
sg5
F0.2513471113839438
sa(dp1855
g3
S'7-4-2-1'
p1856
sg5
F0.0
sa(dp1857
g3
S'7-5-3-1'
p1858
sg5
F1.202033463605276
sa(dp1859
g3
S'7-5-2'
p1860
sg5
F0.8700032411408817
sa(dp1861
g3
S'7-4-2'
p1862
sg5
F0.751959440942724
sa(dp1863
g3
S'7-4-1'
p1864
sg5
F0.7446941323345817
sa(dp1865
g3
S'7-5-3'
p1866
sg5
F0.572143052891203
sa(dp1867
g3
S'7-4-2-1'
p1868
sg5
F0.0
sa(dp1869
g3
S'7-4-1'
p1870
sg5
F1.2400163331972234
sa(dp1871
g3
S'7-5-2'
p1872
sg5
F1.175232198142415
sa(dp1873
g3
S'7-4-2'
p1874
sg5
F0.9175048805429025
sa(dp1875
g3
S'7-5-3-1'
p1876
sg5
F0.850745829965464
sa(dp1877
g3
S'7-5-3'
p1878
sg5
F0.7229615521961671
sa(dp1879
g3
S'7-4-2'
p1880
sg5
F1.4054997817546921
sa(dp1881
g3
S'7-5-3-1'
p1882
sg5
F0.8990007836990596
sa(dp1883
g3
S'7-5-2'
p1884
sg5
F0.8532362916902204
sa(dp1885
g3
S'7-4-1'
p1886
sg5
F0.8468731735827002
sa(dp1887
g3
S'7-5-3'
p1888
sg5
F0.5412931034482759
sa(dp1889
g3
S'7-5-2-1'
p1890
sg5
F0.0
sa(dp1891
g3
S'7-6-3-1'
p1892
sg5
F0.0
sa(dp1893
g3
S'7-4-2-1'
p1894
sg5
F0.0
sa(dp1895
g3
S'7-5-2'
p1896
sg5
F1.5355654761904762
sa(dp1897
g3
S'7-4-2'
p1898
sg5
F1.0702079566003617
sa(dp1899
g3
S'7-5-3-1'
p1900
sg5
F0.8624301242236025
sa(dp1901
g3
S'7-5-3'
p1902
sg5
F0.27557506053268765
sa(dp1903
g3
S'7-4-1'
p1904
sg5
F0.22426108374384235
sa(dp1905
g3
S'7-4-2-1'
p1906
sg5
F0.0
sa(dp1907
g3
S'7-4-2'
p1908
sg5
F1.2397534668721109
sa(dp1909
g3
S'7-5-3-1'
p1910
sg5
F0.9125735559024858
sa(dp1911
g3
S'7-4-1'
p1912
sg5
F0.857307249712313
sa(dp1913
g3
S'7-5-3'
p1914
sg5
F0.7631241997439181
sa(dp1915
g3
S'7-5-2'
p1916
sg5
F0.5085324232081911
sa(dp1917
g3
S'7-6-3-1'
p1918
sg5
F0.0
sa(dp1919
g3
S'7-3'
p1920
sg5
F0.0
sa(dp1921
g3
S'7-5-2'
p1922
sg5
F1.248136823011143
sa(dp1923
g3
S'7-4-2'
p1924
sg5
F0.96878485942788
sa(dp1925
g3
S'7-5-3-1'
p1926
sg5
F0.9657777252165686
sa(dp1927
g3
S'7-4-1'
p1928
sg5
F0.7109507787297513
sa(dp1929
g3
S'7-5-3'
p1930
sg5
F0.5529332605466617
sa(dp1931
g3
S'7-5-2-1'
p1932
sg5
F0.0
sa(dp1933
g3
S'7-4-2-1'
p1934
sg5
F0.0
sa(dp1935
g3
S'7-6-4-1'
p1936
sg5
F0.0
sa(dp1937
g3
S'7-4-1'
p1938
sg5
F1.881656804733728
sa(dp1939
g3
S'7-5-2'
p1940
sg5
F1.1677618863548511
sa(dp1941
g3
S'7-5-3'
p1942
sg5
F1.117866004962779
sa(dp1943
g3
S'7-4-2'
p1944
sg5
F0.9187432286023837
sa(dp1945
g3
S'7-5-3-1'
p1946
sg5
F0.7484206614641398
sa(dp1947
g3
S'7-5-2-1'
p1948
sg5
F0.0
sa(dp1949
g3
S'7-5-2'
p1950
sg5
F1.203877528215443
sa(dp1951
g3
S'7-4-2'
p1952
sg5
F1.0044455998960093
sa(dp1953
g3
S'7-5-3-1'
p1954
sg5
F0.8968087622434083
sa(dp1955
g3
S'7-4-1'
p1956
sg5
F0.8804621537549994
sa(dp1957
g3
S'7-5-3'
p1958
sg5
F0.6544924786556443
sa(dp1959
g3
S'7-6-4-2'
p1960
sg5
F0.0
sa(dp1961
g3
S'7-4-2'
p1962
sg5
F1.0814290312198263
sa(dp1963
g3
S'7-5-3-1'
p1964
sg5
F1.0183036248355066
sa(dp1965
g3
S'7-4-1'
p1966
sg5
F0.7832167832167832
sa(dp1967
g3
S'7-5-2'
p1968
sg5
F0.7419948472580051
sa(dp1969
g3
S'7-5-3'
p1970
sg5
F0.5680473372781066
sa(dp1971
g3
S'7-6-4-2'
p1972
sg5
F0.0
sa(dp1973
g3
S'7-4-2-1'
p1974
sg5
F0.0
sa(dp1975
g3
S'7-4'
p1976
sg5
F0.0
sa(dp1977
g3
S'7-5-2'
p1978
sg5
F1.137982472496737
sa(dp1979
g3
S'7-4-2'
p1980
sg5
F1.0896511705760261
sa(dp1981
g3
S'7-5-3'
p1982
sg5
F0.8860167565110086
sa(dp1983
g3
S'7-5-3-1'
p1984
sg5
F0.8820119309050829
sa(dp1985
g3
S'7-4-1'
p1986
sg5
F0.5270208275988623
sa(dp1987
g3
S'7-5-2'
p1988
sg5
F1.2342245989304814
sa(dp1989
g3
S'7-4-1'
p1990
sg5
F1.130910575745202
sa(dp1991
g3
S'7-5-3-1'
p1992
sg5
F0.9577823272284625
sa(dp1993
g3
S'7-4-2'
p1994
sg5
F0.7484553678102065
sa(dp1995
g3
S'7-5-3'
p1996
sg5
F0.38928947923255325
sa(dp1997
g3
S'7-5-2-1'
p1998
sg5
F0.0
sa(dp1999
g3
S'7-4-2-1'
p2000
sg5
F0.0
sa(dp2001
g3
S'7-4'
p2002
sg5
F0.0
sa(dp2003
g3
S'7-6-4-2'
p2004
sg5
F13.253333333333334
sa(dp2005
g3
S'7-5-2'
p2006
sg5
F1.0635390946502057
sa(dp2007
g3
S'7-4-2'
p2008
sg5
F0.8934831460674157
sa(dp2009
g3
S'7-5-3-1'
p2010
sg5
F0.8835555555555556
sa(dp2011
g3
S'7-4-1'
p2012
sg5
F0.7163963963963964
sa(dp2013
g3
S'7-5-3'
p2014
sg5
F0.2989473684210527
sa(dp2015
g3
S'7-5-2-1'
p2016
sg5
F0.0
sa(dp2017
g3
S'7-4-2-1'
p2018
sg5
F0.0
sa(dp2019
g3
S'7-5-2'
p2020
sg5
F1.1100223964165734
sa(dp2021
g3
S'7-4-1'
p2022
sg5
F1.1070780399274047
sa(dp2023
g3
S'7-5-3-1'
p2024
sg5
F1.022460610124036
sa(dp2025
g3
S'7-4-2'
p2026
sg5
F0.7767402376910016
sa(dp2027
g3
S'7-5-3'
p2028
sg5
F0.4013157894736842
sa(dp2029
g3
S'7-4-1'
p2030
sg5
F1.021288837744534
sa(dp2031
g3
S'7-5-2'
p2032
sg5
F1.0066467038700604
sa(dp2033
g3
S'7-5-3-1'
p2034
sg5
F0.9927877539005004
sa(dp2035
g3
S'7-5-3'
p2036
sg5
F0.7052846682181984
sa(dp2037
g3
S'7-4-2'
p2038
sg5
F0.6918408255688777
sa(dp2039
g3
S'7-5-2-1'
p2040
sg5
F0.0
sa(dp2041
g3
S'7-6-4-2'
p2042
sg5
F0.0
sa(dp2043
g3
S'7-4-2-1'
p2044
sg5
F0.0
sasI8
(lp2045
(dp2046
g3
S'8-5-3-1'
p2047
sg5
F1.0841480446927374
sa(dp2048
g3
S'8-6-4-1'
p2049
sg5
F0.9928897917724733
sa(dp2050
g3
S'8-5-2'
p2051
sg5
F0.910148975791434
sa(dp2052
g3
S'8-6-3-1'
p2053
sg5
F0.8702619688842396
sa(dp2054
g3
S'8-6-4-2'
p2055
sg5
F0.8227972165049495
sa(dp2056
g3
S'8-5-3'
p2057
sg5
F0.4614839877252341
sa(dp2058
g3
S'8-6-3'
p2059
sg5
F0.4283054003724395
sa(dp2060
g3
S'8-6-4-2-1'
p2061
sg5
F0.0
sa(dp2062
g3
S'8-5-2'
p2063
sg5
F1.6591865357643756
sa(dp2064
g3
S'8-6-3-1'
p2065
sg5
F1.3568458781362007
sa(dp2066
g3
S'8-6-4-1'
p2067
sg5
F0.9409633230225365
sa(dp2068
g3
S'8-6-4-2'
p2069
sg5
F0.8508936355710548
sa(dp2070
g3
S'8-6-3'
p2071
sg5
F0.817741935483871
sa(dp2072
g3
S'8-5-3-1'
p2073
sg5
F0.7552755376344086
sa(dp2074
g3
S'8-5-3'
p2075
sg5
F0.38161290322580643
sa(dp2076
g3
S'8-7-5-3'
p2077
sg5
F0.0
sa(dp2078
g3
S'8-5-2-1'
p2079
sg5
F0.0
sa(dp2080
g3
S'8-6-3'
p2081
sg5
F1.3602836879432625
sa(dp2082
g3
S'8-6-4-2'
p2083
sg5
F1.1008947807079619
sa(dp2084
g3
S'8-6-3-1'
p2085
sg5
F1.027552426144191
sa(dp2086
g3
S'8-5-2'
p2087
sg5
F1.0002085940759284
sa(dp2088
g3
S'8-5-3-1'
p2089
sg5
F0.7613528104160051
sa(dp2090
g3
S'8-5-3'
p2091
sg5
F0.6975813784324423
sa(dp2092
g3
S'8-6-4-1'
p2093
sg5
F0.5829787234042554
sa(dp2094
g3
S'8-7-5-3'
p2095
sg5
F0.0
sa(dp2096
g3
S'8-7-5-3-1'
p2097
sg5
F0.0
sa(dp2098
g3
S'8-5-3-1'
p2099
sg5
F1.3633680285847445
sa(dp2100
g3
S'8-5-2'
p2101
sg5
F1.0290806754221387
sa(dp2102
g3
S'8-6-4-2'
p2103
sg5
F0.9016171309254077
sa(dp2104
g3
S'8-6-4-1'
p2105
sg5
F0.8978556228515305
sa(dp2106
g3
S'8-6-3-1'
p2107
sg5
F0.5902080344332855
sa(dp2108
g3
S'8-5-3'
p2109
sg5
F0.477787456445993
sa(dp2110
g3
S'8-6-3'
p2111
sg5
F0.37161246612466126
sa(dp2112
g3
S'8-6-4'
p2113
sg5
F0.0
sa(dp2114
g3
S'8-6-4-2-1'
p2115
sg5
F0.0
sa(dp2116
g3
S'8-5-2'
p2117
sg5
F3.760840108401084
sa(dp2118
g3
S'8-6-3-1'
p2119
sg5
F1.232544237207078
sa(dp2120
g3
S'8-6-4-2'
p2121
sg5
F1.0140664961636827
sa(dp2122
g3
S'8-6-4-1'
p2123
sg5
F0.9849819331526648
sa(dp2124
g3
S'8-5-3-1'
p2125
sg5
F0.49173212071103756
sa(dp2126
g3
S'8-6-3'
p2127
sg5
F0.38682926829268294
sa(dp2128
g3
S'8-5-3'
p2129
sg5
F0.38682926829268294
sa(dp2130
g3
S'8-6-3-2'
p2131
sg5
F0.0
sa(dp2132
g3
S'8-7-5-3-1'
p2133
sg5
F0.0
sa(dp2134
g3
S'8-6-4'
p2135
sg5
F0.0
sa(dp2136
g3
S'8-6-4-2-1'
p2137
sg5
F0.0
sa(dp2138
g3
S'8-5-3'
p2139
sg5
F1.5014492753623188
sa(dp2140
g3
S'8-6-4-2'
p2141
sg5
F0.9854425144747725
sa(dp2142
g3
S'8-6-3'
p2143
sg5
F0.9087719298245615
sa(dp2144
g3
S'8-6-4-1'
p2145
sg5
F0.7194444444444444
sa(dp2146
g3
S'8-6-3-1'
p2147
sg5
F0.7047619047619048
sa(dp2148
g3
S'8-5-3-1'
p2149
sg5
F0.6906666666666667
sa(dp2150
g3
S'8-5-2'
p2151
sg5
F0.4111111111111111
sa(dp2152
g3
S'8-6-4-2-1'
p2153
sg5
F0.0
sa(dp2154
g3
S'8-6-4-1'
p2155
sg5
F1.4655394940629838
sa(dp2156
g3
S'8-6-4-2'
p2157
sg5
F1.0117086492925418
sa(dp2158
g3
S'8-6-3-1'
p2159
sg5
F0.7705079678106811
sa(dp2160
g3
S'8-5-3-1'
p2161
sg5
F0.7423615580276424
sa(dp2162
g3
S'8-5-2'
p2163
sg5
F0.5890477580001946
sa(dp2164
g3
S'8-6-3'
p2165
sg5
F0.4323861202341853
sa(dp2166
g3
S'8-5-3'
p2167
sg5
F0.15876677852348992
sa(dp2168
g3
S'8-5-3-1'
p2169
sg5
F1.099868172587024
sa(dp2170
g3
S'8-6-3-1'
p2171
sg5
F1.0579121158242317
sa(dp2172
g3
S'8-5-2'
p2173
sg5
F0.9645669291338582
sa(dp2174
g3
S'8-6-4-2'
p2175
sg5
F0.9194169877701458
sa(dp2176
g3
S'8-5-3'
p2177
sg5
F0.7891911238367931
sa(dp2178
g3
S'8-6-3'
p2179
sg5
F0.7015032211882606
sa(dp2180
g3
S'8-6-4-1'
p2181
sg5
F0.6778037880400085
sa(dp2182
g3
S'8-7-5-3-1'
p2183
sg5
F0.0
sa(dp2184
g3
S'8-6-4'
p2185
sg5
F0.0
sa(dp2186
g3
S'8-6-4-2-1'
p2187
sg5
F0.0
sa(dp2188
g3
S'8-5-3-1'
p2189
sg5
F1.129795293359123
sa(dp2190
g3
S'8-6-4-1'
p2191
sg5
F1.1155342026996111
sa(dp2192
g3
S'8-6-4-2'
p2193
sg5
F0.9365839243498818
sa(dp2194
g3
S'8-6-3-1'
p2195
sg5
F0.9262917933130699
sa(dp2196
g3
S'8-5-2'
p2197
sg5
F0.9262917933130699
sa(dp2198
g3
S'8-5-3'
p2199
sg5
F0.6916312056737588
sa(dp2200
g3
S'8-6-3'
p2201
sg5
F0.6484042553191489
sa(dp2202
g3
S'8-6-4-2-1'
p2203
sg5
F0.0
sa(dp2204
g3
S'8-6-4-1'
p2205
sg5
F1.612987012987013
sa(dp2206
g3
S'8-5-2'
p2207
sg5
F1.2714987714987713
sa(dp2208
g3
S'8-5-3'
p2209
sg5
F1.0856643356643356
sa(dp2210
g3
S'8-6-4-2'
p2211
sg5
F0.9532662459491728
sa(dp2212
g3
S'8-5-3-1'
p2213
sg5
F0.7288732394366197
sa(dp2214
g3
S'8-6-3-1'
p2215
sg5
F0.4151069518716577
sa(dp2216
g3
S'8-6-3'
p2217
sg5
F0.3484848484848485
sa(dp2218
g3
S'8-6-4-2-1'
p2219
sg5
F0.0
sa(dp2220
g3
S'8-7-4-2'
p2221
sg5
F0.0
sa(dp2222
g3
S'8-5-3'
p2223
sg5
F1.4651653764954258
sa(dp2224
g3
S'8-6-4-1'
p2225
sg5
F1.4002201027146002
sa(dp2226
g3
S'8-5-2'
p2227
sg5
F1.2464080459770115
sa(dp2228
g3
S'8-6-4-2'
p2229
sg5
F0.8793103448275862
sa(dp2230
g3
S'8-6-3'
p2231
sg5
F0.7719688542825361
sa(dp2232
g3
S'8-6-3-1'
p2233
sg5
F0.7208142916493561
sa(dp2234
g3
S'8-5-3-1'
p2235
sg5
F0.6936531734132934
sa(dp2236
g3
S'8-4-2'
p2237
sg5
F0.0
sa(dp2238
g3
S'8-6-4-2-1'
p2239
sg5
F0.0
sa(dp2240
g3
S'8-7-4-2'
p2241
sg5
F0.0
sa(dp2242
g3
S'8-5-2'
p2243
sg5
F1.3107344632768363
sa(dp2244
g3
S'8-6-4-1'
p2245
sg5
F1.2340425531914894
sa(dp2246
g3
S'8-6-3-1'
p2247
sg5
F1.1958762886597938
sa(dp2248
g3
S'8-5-3-1'
p2249
sg5
F1.0273752012882449
sa(dp2250
g3
S'8-6-4-2'
p2251
sg5
F0.8992248062015503
sa(dp2252
g3
S'8-6-3'
p2253
sg5
F0.20567375886524825
sa(dp2254
g3
S'8-5-3'
p2255
sg5
F0.14215686274509806
sa(dp2256
g3
S'8-5-3'
p2257
sg5
F1.3050367855121674
sa(dp2258
g3
S'8-6-3'
p2259
sg5
F1.223471986417657
sa(dp2260
g3
S'8-5-3-1'
p2261
sg5
F1.0939278937381405
sa(dp2262
g3
S'8-6-4-2'
p2263
sg5
F1.0836466165413534
sa(dp2264
g3
S'8-5-2'
p2265
sg5
F0.9861925708699902
sa(dp2266
g3
S'8-6-3-1'
p2267
sg5
F0.4959139784946236
sa(dp2268
g3
S'8-6-4-1'
p2269
sg5
F0.2796507397526073
sa(dp2270
g3
S'8-7-5-3-1'
p2271
sg5
F0.0
sa(dp2272
g3
S'8-5-2-1'
p2273
sg5
F0.0
sa(dp2274
g3
S'8-6-4'
p2275
sg5
F0.0
sa(dp2276
g3
S'8-6-4-2-1'
p2277
sg5
F0.0
sa(dp2278
g3
S'8-6-4-1'
p2279
sg5
F1.4757903161264503
sa(dp2280
g3
S'8-5-2'
p2281
sg5
F1.1257631257631258
sa(dp2282
g3
S'8-6-3-1'
p2283
sg5
F1.1162227602905568
sa(dp2284
g3
S'8-6-4-2'
p2285
sg5
F0.9389661469307486
sa(dp2286
g3
S'8-5-3-1'
p2287
sg5
F0.6703017084696473
sa(dp2288
g3
S'8-6-3'
p2289
sg5
F0.0
sa(dp2290
g3
S'8-6-4'
p2291
sg5
F0.0
sa(dp2292
g3
S'8-5-3'
p2293
sg5
F0.0
sa(dp2294
g3
S'8-5-2'
p2295
sg5
F1.2794275491949911
sa(dp2296
g3
S'8-6-3-1'
p2297
sg5
F1.1550387596899225
sa(dp2298
g3
S'8-6-4-2'
p2299
sg5
F1.0141803743618831
sa(dp2300
g3
S'8-5-3-1'
p2301
sg5
F0.861492997558782
sa(dp2302
g3
S'8-6-4-1'
p2303
sg5
F0.6816622188333968
sa(dp2304
g3
S'8-6-3'
p2305
sg5
F0.39227731461167176
sa(dp2306
g3
S'8-5-3'
p2307
sg5
F0.3465116279069767
sa(dp2308
g3
S'8-4-1'
p2309
sg5
F0.0
sa(dp2310
g3
S'8-7-4-2'
p2311
sg5
F0.0
sa(dp2312
g3
S'8-5-2'
p2313
sg5
F1.9108571428571428
sa(dp2314
g3
S'8-5-3'
p2315
sg5
F1.1502702702702703
sa(dp2316
g3
S'8-6-4-1'
p2317
sg5
F1.0485797101449275
sa(dp2318
g3
S'8-6-3-1'
p2319
sg5
F0.8852479999999999
sa(dp2320
g3
S'8-5-3-1'
p2321
sg5
F0.832
sa(dp2322
g3
S'8-6-4-2'
p2323
sg5
F0.8292941176470588
sa(dp2324
g3
S'8-6-3'
p2325
sg5
F0.7296
sa(dp2326
g3
S'8-6-4'
p2327
sg5
F0.0
sa(dp2328
g3
S'8-6-4-2-1'
p2329
sg5
F0.0
sa(dp2330
g3
S'8-7-4-2'
p2331
sg5
F0.0
sa(dp2332
g3
S'8-6-3'
p2333
sg5
F1.5714285714285714
sa(dp2334
g3
S'8-6-4-1'
p2335
sg5
F1.2365731680800174
sa(dp2336
g3
S'8-5-3-1'
p2337
sg5
F1.067949554250924
sa(dp2338
g3
S'8-6-3-1'
p2339
sg5
F0.965452847805789
sa(dp2340
g3
S'8-5-2'
p2341
sg5
F0.9186211798152096
sa(dp2342
g3
S'8-6-4-2'
p2343
sg5
F0.8864195134575569
sa(dp2344
g3
S'8-5-3'
p2345
sg5
F0.2159565580618212
sa(dp2346
g3
S'8-6-4'
p2347
sg5
F0.0
sa(dp2348
g3
S'8-5-2'
p2349
sg5
F1.3379888268156426
sa(dp2350
g3
S'8-6-4-1'
p2351
sg5
F1.1403313864906044
sa(dp2352
g3
S'8-5-3-1'
p2353
sg5
F1.0384390894688569
sa(dp2354
g3
S'8-6-4-2'
p2355
sg5
F0.9005342035476007
sa(dp2356
g3
S'8-6-3'
p2357
sg5
F0.8919925512104283
sa(dp2358
g3
S'8-6-3-1'
p2359
sg5
F0.7853412679135293
sa(dp2360
g3
S'8-5-3'
p2361
sg5
F0.6175333046841427
sa(dp2362
g3
S'8-6-4-2-1'
p2363
sg5
F0.0
sa(dp2364
g3
S'8-5-2'
p2365
sg5
F1.7548865069356872
sa(dp2366
g3
S'8-5-3-1'
p2367
sg5
F1.2520242914979756
sa(dp2368
g3
S'8-6-3-1'
p2369
sg5
F1.1974057821373256
sa(dp2370
g3
S'8-6-4-1'
p2371
sg5
F0.7834523261169968
sa(dp2372
g3
S'8-6-4-2'
p2373
sg5
F0.738262599469496
sa(dp2374
g3
S'8-5-3'
p2375
sg5
F0.23322021116138764
sa(dp2376
g3
S'8-6-3'
p2377
sg5
F0.21625874125874125
sa(dp2378
g3
S'8-6-4'
p2379
sg5
F0.0
sa(dp2380
g3
S'8-7-5-3-1'
p2381
sg5
F0.0
sa(dp2382
g3
S'8-7-5-2'
p2383
sg5
F0.0
sa(dp2384
g3
S'8-6-3'
p2385
sg5
F1.1055555555555554
sa(dp2386
g3
S'8-6-4-1'
p2387
sg5
F1.077061855670103
sa(dp2388
g3
S'8-6-3-1'
p2389
sg5
F1.0535294117647058
sa(dp2390
g3
S'8-5-3-1'
p2391
sg5
F0.9405472636815919
sa(dp2392
g3
S'8-6-4-2'
p2393
sg5
F0.8847667638483965
sa(dp2394
g3
S'8-5-2'
p2395
sg5
F0.4738095238095238
sa(dp2396
g3
S'8-5-3'
p2397
sg5
F0.4738095238095238
sa(dp2398
g3
S'8-5-3'
p2399
sg5
F1.4937694704049842
sa(dp2400
g3
S'8-5-2'
p2401
sg5
F1.434018691588785
sa(dp2402
g3
S'8-6-4-1'
p2403
sg5
F1.1754251570399876
sa(dp2404
g3
S'8-6-3-1'
p2405
sg5
F0.888187252673234
sa(dp2406
g3
S'8-6-3'
p2407
sg5
F0.8673500150738619
sa(dp2408
g3
S'8-6-4-2'
p2409
sg5
F0.8636354539814685
sa(dp2410
g3
S'8-5-3-1'
p2411
sg5
F0.8630668051228799
sa(dp2412
g3
S'8-6-4-1'
p2413
sg5
F1.612987012987013
sa(dp2414
g3
S'8-5-2'
p2415
sg5
F1.2714987714987713
sa(dp2416
g3
S'8-5-3'
p2417
sg5
F1.0856643356643356
sa(dp2418
g3
S'8-6-4-2'
p2419
sg5
F0.9532662459491728
sa(dp2420
g3
S'8-5-3-1'
p2421
sg5
F0.7288732394366197
sa(dp2422
g3
S'8-6-3-1'
p2423
sg5
F0.4151069518716577
sa(dp2424
g3
S'8-6-3'
p2425
sg5
F0.3484848484848485
sa(dp2426
g3
S'8-6-4-2-1'
p2427
sg5
F0.0
sa(dp2428
g3
S'8-7-4-2'
p2429
sg5
F0.0
sa(dp2430
g3
S'8-5-2'
p2431
sg5
F1.9108571428571428
sa(dp2432
g3
S'8-5-3'
p2433
sg5
F1.1502702702702703
sa(dp2434
g3
S'8-6-4-1'
p2435
sg5
F1.0485797101449275
sa(dp2436
g3
S'8-6-3-1'
p2437
sg5
F0.8852479999999999
sa(dp2438
g3
S'8-5-3-1'
p2439
sg5
F0.832
sa(dp2440
g3
S'8-6-4-2'
p2441
sg5
F0.8292941176470588
sa(dp2442
g3
S'8-6-3'
p2443
sg5
F0.7296
sa(dp2444
g3
S'8-6-4'
p2445
sg5
F0.0
sa(dp2446
g3
S'8-6-4-2-1'
p2447
sg5
F0.0
sa(dp2448
g3
S'8-7-4-2'
p2449
sg5
F0.0
sa(dp2450
g3
S'8-6-4-2'
p2451
sg5
F1.0968424710546685
sa(dp2452
g3
S'8-5-3-1'
p2453
sg5
F1.0580673758865249
sa(dp2454
g3
S'8-6-3-1'
p2455
sg5
F0.9188102042976607
sa(dp2456
g3
S'8-6-4-1'
p2457
sg5
F0.6449172576832152
sa(dp2458
g3
S'8-5-2'
p2459
sg5
F0.3468184996503845
sa(dp2460
g3
S'8-6-3'
p2461
sg5
F0.2619586539912479
sa(dp2462
g3
S'8-5-3'
p2463
sg5
F0.24624113475177303
sa(dp2464
g3
S'8-6-4'
p2465
sg5
F0.0
sa(dp2466
g3
S'8-6-4-2-1'
p2467
sg5
F0.0
sa(dp2468
g3
S'8-5-3'
p2469
sg5
F1.2984509466437177
sa(dp2470
g3
S'8-6-3-1'
p2471
sg5
F1.2065252159078792
sa(dp2472
g3
S'8-6-4-1'
p2473
sg5
F1.0519857206604195
sa(dp2474
g3
S'8-5-3-1'
p2475
sg5
F0.9613531047265989
sa(dp2476
g3
S'8-6-4-2'
p2477
sg5
F0.9409064830751578
sa(dp2478
g3
S'8-6-3'
p2479
sg5
F0.8115318416523236
sa(dp2480
g3
S'8-5-2'
p2481
sg5
F0.25821467688937566
sa(dp2482
g3
S'8-6-4'
p2483
sg5
F0.0
sa(dp2484
g3
S'8-6-4-2-1'
p2485
sg5
F0.0
sa(dp2486
g3
S'8-6-4-1'
p2487
sg5
F1.096875
sa(dp2488
g3
S'8-5-3-1'
p2489
sg5
F1.0851812366737739
sa(dp2490
g3
S'8-6-4-2'
p2491
sg5
F0.9719320327249843
sa(dp2492
g3
S'8-5-3'
p2493
sg5
F0.9401785714285715
sa(dp2494
g3
S'8-5-2'
p2495
sg5
F0.7062374245472837
sa(dp2496
g3
S'8-6-3-1'
p2497
sg5
F0.6551328068916009
sa(dp2498
g3
S'8-6-3'
p2499
sg5
F0.0
sa(dp2500
g3
S'8-6-4'
p2501
sg5
F0.0
sa(dp2502
g3
S'8-6-4-2-1'
p2503
sg5
F0.0
sa(dp2504
g3
S'8-5-2'
p2505
sg5
F1.717948717948718
sa(dp2506
g3
S'8-5-3-1'
p2507
sg5
F1.2395793183194759
sa(dp2508
g3
S'8-6-3-1'
p2509
sg5
F1.129084030723375
sa(dp2510
g3
S'8-6-4-2'
p2511
sg5
F0.9006096877950426
sa(dp2512
g3
S'8-6-4-1'
p2513
sg5
F0.8139451789086826
sa(dp2514
g3
S'8-6-3'
p2515
sg5
F0.7496503496503497
sa(dp2516
g3
S'8-5-3'
p2517
sg5
F0.5178505704821494
sa(dp2518
g3
S'8-6-4-1'
p2519
sg5
F1.4655394940629838
sa(dp2520
g3
S'8-6-4-2'
p2521
sg5
F1.0117086492925418
sa(dp2522
g3
S'8-6-3-1'
p2523
sg5
F0.7705079678106811
sa(dp2524
g3
S'8-5-3-1'
p2525
sg5
F0.7423615580276424
sa(dp2526
g3
S'8-5-2'
p2527
sg5
F0.5890477580001946
sa(dp2528
g3
S'8-6-3'
p2529
sg5
F0.4323861202341853
sa(dp2530
g3
S'8-5-3'
p2531
sg5
F0.15876677852348992
sa(dp2532
g3
S'8-5-3-1'
p2533
sg5
F1.249225784934966
sa(dp2534
g3
S'8-6-3-1'
p2535
sg5
F1.0098283207491456
sa(dp2536
g3
S'8-5-2'
p2537
sg5
F1.0066225165562914
sa(dp2538
g3
S'8-6-4-2'
p2539
sg5
F0.9522104886343297
sa(dp2540
g3
S'8-6-4-1'
p2541
sg5
F0.9254432813501389
sa(dp2542
g3
S'8-5-3'
p2543
sg5
F0.49236970918514256
sa(dp2544
g3
S'8-6-3'
p2545
sg5
F0.0
sa(dp2546
g3
S'8-6-4-2-1'
p2547
sg5
F0.0
sa(dp2548
g3
S'8-7-4-2'
p2549
sg5
F0.0
sa(dp2550
g3
S'8-5-2'
p2551
sg5
F1.1967239185750638
sa(dp2552
g3
S'8-6-4-2'
p2553
sg5
F1.0402415100476716
sa(dp2554
g3
S'8-6-3-1'
p2555
sg5
F0.8975429389312978
sa(dp2556
g3
S'8-6-4-1'
p2557
sg5
F0.7845838763731149
sa(dp2558
g3
S'8-5-3-1'
p2559
sg5
F0.6564885496183206
sa(dp2560
g3
S'8-6-3'
p2561
sg5
F0.5891563906831082
sa(dp2562
g3
S'8-5-3'
p2563
sg5
F0.0
sa(dp2564
g3
S'8-6-4-2-1'
p2565
sg5
F0.0
sa(dp2566
g3
S'8-5-2'
p2567
sg5
F1.2794275491949911
sa(dp2568
g3
S'8-6-3-1'
p2569
sg5
F1.1550387596899225
sa(dp2570
g3
S'8-6-4-2'
p2571
sg5
F1.0141803743618831
sa(dp2572
g3
S'8-5-3-1'
p2573
sg5
F0.861492997558782
sa(dp2574
g3
S'8-6-4-1'
p2575
sg5
F0.6816622188333968
sa(dp2576
g3
S'8-6-3'
p2577
sg5
F0.39227731461167176
sa(dp2578
g3
S'8-5-3'
p2579
sg5
F0.3465116279069767
sa(dp2580
g3
S'8-4-1'
p2581
sg5
F0.0
sa(dp2582
g3
S'8-7-4-2'
p2583
sg5
F0.0
sa(dp2584
g3
S'8-5-2'
p2585
sg5
F1.7257811385361679
sa(dp2586
g3
S'8-5-3'
p2587
sg5
F1.1391669357442689
sa(dp2588
g3
S'8-6-4-2'
p2589
sg5
F1.0328538632148276
sa(dp2590
g3
S'8-6-4-1'
p2591
sg5
F0.8834355828220859
sa(dp2592
g3
S'8-6-3-1'
p2593
sg5
F0.7994588163941309
sa(dp2594
g3
S'8-5-3-1'
p2595
sg5
F0.6419428110471904
sa(dp2596
g3
S'8-6-3'
p2597
sg5
F0.0
sa(dp2598
g3
S'8-6-4'
p2599
sg5
F0.0
sa(dp2600
g3
S'8-7-5-2'
p2601
sg5
F0.0
sa(dp2602
g3
S'8-5-3'
p2603
sg5
F1.5788690476190477
sa(dp2604
g3
S'8-6-3'
p2605
sg5
F1.1841517857142856
sa(dp2606
g3
S'8-5-3-1'
p2607
sg5
F1.1030454990215264
sa(dp2608
g3
S'8-6-4-2'
p2609
sg5
F0.9436918445539135
sa(dp2610
g3
S'8-6-3-1'
p2611
sg5
F0.8403657834101382
sa(dp2612
g3
S'8-6-4-1'
p2613
sg5
F0.8102091165413534
sa(dp2614
g3
S'8-5-2'
p2615
sg5
F0.19735863095238093
sa(dp2616
g3
S'8-6-4-2-1'
p2617
sg5
F0.0
sa(dp2618
g3
S'8-5-2'
p2619
sg5
F1.5745422842197037
sa(dp2620
g3
S'8-5-3'
p2621
sg5
F1.196343402225755
sa(dp2622
g3
S'8-6-3-1'
p2623
sg5
F1.106821106821107
sa(dp2624
g3
S'8-5-3-1'
p2625
sg5
F1.049694856146469
sa(dp2626
g3
S'8-6-4-2'
p2627
sg5
F0.8858812800530592
sa(dp2628
g3
S'8-6-3'
p2629
sg5
F0.8415657036346691
sa(dp2630
g3
S'8-6-4-1'
p2631
sg5
F0.5248474280732345
sa(dp2632
g3
S'8-7-5-3-1'
p2633
sg5
F0.0
sa(dp2634
g3
S'8-6-4-1'
p2635
sg5
F1.5446570972886762
sa(dp2636
g3
S'8-6-4-2'
p2637
sg5
F0.9272228667862039
sa(dp2638
g3
S'8-6-3-1'
p2639
sg5
F0.8254847645429362
sa(dp2640
g3
S'8-5-3-1'
p2641
sg5
F0.6178628389154704
sa(dp2642
g3
S'8-5-2'
p2643
sg5
F0.4438927507447865
sa(dp2644
g3
S'8-5-3'
p2645
sg5
F0.3409610983981693
sa(dp2646
g3
S'8-6-3'
p2647
sg5
F0.2306501547987616
sa(dp2648
g3
S'8-6-4'
p2649
sg5
F0.0
sa(dp2650
g3
S'8-5-3-2'
p2651
sg5
F0.0
sa(dp2652
g3
S'8-7-5-3-1'
p2653
sg5
F0.0
sa(dp2654
g3
S'8-5-2'
p2655
sg5
F1.3792302106027596
sa(dp2656
g3
S'8-6-3-1'
p2657
sg5
F1.0922475270301357
sa(dp2658
g3
S'8-6-4-2'
p2659
sg5
F0.9959750901343822
sa(dp2660
g3
S'8-5-3-1'
p2661
sg5
F0.9460384435067979
sa(dp2662
g3
S'8-6-4-1'
p2663
sg5
F0.820641975308642
sa(dp2664
g3
S'8-6-3'
p2665
sg5
F0.4089577950043067
sa(dp2666
g3
S'8-5-3'
p2667
sg5
F0.15425601039636128
sa(dp2668
g3
S'8-6-4'
p2669
sg5
F0.0
sa(dp2670
g3
S'8-6-4-2-1'
p2671
sg5
F0.0
sa(dp2672
g3
S'8-6-4-1'
p2673
sg5
F1.3607113486842104
sa(dp2674
g3
S'8-5-3-1'
p2675
sg5
F1.1198460285735434
sa(dp2676
g3
S'8-6-4-2'
p2677
sg5
F0.7923521160117323
sa(dp2678
g3
S'8-6-3-1'
p2679
sg5
F0.7447547440028642
sa(dp2680
g3
S'8-5-2'
p2681
sg5
F0.4951557999476302
sa(dp2682
g3
S'8-5-3'
p2683
sg5
F0.23696741854636588
sa(dp2684
g3
S'8-6-3'
p2685
sg5
F0.0
sa(dp2686
g3
S'8-6-4'
p2687
sg5
F0.0
sa(dp2688
g3
S'8-6-4-2-1'
p2689
sg5
F0.0
sa(dp2690
g3
S'8-5-2'
p2691
sg5
F3.760840108401084
sa(dp2692
g3
S'8-6-3-1'
p2693
sg5
F1.232544237207078
sa(dp2694
g3
S'8-6-4-2'
p2695
sg5
F1.0140664961636827
sa(dp2696
g3
S'8-6-4-1'
p2697
sg5
F0.9849819331526648
sa(dp2698
g3
S'8-5-3-1'
p2699
sg5
F0.49173212071103756
sa(dp2700
g3
S'8-6-3'
p2701
sg5
F0.38682926829268294
sa(dp2702
g3
S'8-5-3'
p2703
sg5
F0.38682926829268294
sa(dp2704
g3
S'8-6-3-2'
p2705
sg5
F0.0
sa(dp2706
g3
S'8-7-5-3-1'
p2707
sg5
F0.0
sa(dp2708
g3
S'8-6-4'
p2709
sg5
F0.0
sa(dp2710
g3
S'8-6-4-2-1'
p2711
sg5
F0.0
sa(dp2712
g3
S'8-5-3'
p2713
sg5
F2.2365900383141764
sa(dp2714
g3
S'8-5-3-1'
p2715
sg5
F1.5191932335718934
sa(dp2716
g3
S'8-6-3-1'
p2717
sg5
F1.4910600255427844
sa(dp2718
g3
S'8-5-2'
p2719
sg5
F1.1502463054187193
sa(dp2720
g3
S'8-6-4-1'
p2721
sg5
F1.1105826397146255
sa(dp2722
g3
S'8-6-4-2'
p2723
sg5
F0.6929762577727531
sa(dp2724
g3
S'8-6-3'
p2725
sg5
F0.0
sa(dp2726
g3
S'8-6-4'
p2727
sg5
F0.0
sa(dp2728
g3
S'8-6-4-2-1'
p2729
sg5
F0.0
sa(dp2730
g3
S'8-5-2'
p2731
sg5
F1.8705129878605926
sa(dp2732
g3
S'8-6-4-1'
p2733
sg5
F1.2487799776910207
sa(dp2734
g3
S'8-6-4-2'
p2735
sg5
F0.9725578446343575
sa(dp2736
g3
S'8-6-3-1'
p2737
sg5
F0.8745382712877012
sa(dp2738
g3
S'8-5-3-1'
p2739
sg5
F0.6169411258206867
sa(dp2740
g3
S'8-6-3'
p2741
sg5
F0.46270584436551504
sa(dp2742
g3
S'8-5-3'
p2743
sg5
F0.2930470347648262
sa(dp2744
g3
S'8-6-4-2-1'
p2745
sg5
F0.0
sa(dp2746
g3
S'8-7-5-3-1'
p2747
sg5
F0.0
sasI9
(lp2748
(dp2749
g3
S'9-6-4-2'
p2750
sg5
F1.2079960755457446
sa(dp2751
g3
S'9-7-5-2'
p2752
sg5
F1.1146402623288112
sa(dp2753
g3
S'9-7-4-1'
p2754
sg5
F1.0182523017283152
sa(dp2755
g3
S'9-7-5-3-1'
p2756
sg5
F0.9519166468925945
sa(dp2757
g3
S'9-7-4-2'
p2758
sg5
F0.6784105960264901
sa(dp2759
g3
S'9-6-3'
p2760
sg5
F0.5493203206692228
sa(dp2761
g3
S'9-6-3-1'
p2762
sg5
F0.5398492806576844
sa(dp2763
g3
S'9-7-5-3'
p2764
sg5
F0.33239127683806474
sa(dp2765
g3
S'9-6-4-1'
p2766
sg5
F0.17109977201172513
sa(dp2767
g3
S'9-7-4-2-1'
p2768
sg5
F0.0
sa(dp2769
g3
S'9-6-4'
p2770
sg5
F0.0
sa(dp2771
g3
S'9-6-4-2-1'
p2772
sg5
F0.0
sa(dp2773
g3
S'9-7-5-2'
p2774
sg5
F2.2028791429527956
sa(dp2775
g3
S'9-6-4-1'
p2776
sg5
F1.307007786429366
sa(dp2777
g3
S'9-7-4-2'
p2778
sg5
F1.1786833855799372
sa(dp2779
g3
S'9-7-5-3-1'
p2780
sg5
F0.8125408840295301
sa(dp2781
g3
S'9-6-3-1'
p2782
sg5
F0.810344827586207
sa(dp2783
g3
S'9-6-4-2'
p2784
sg5
F0.7693147097337408
sa(dp2785
g3
S'9-7-4-1'
p2786
sg5
F0.6752873563218391
sa(dp2787
g3
S'9-7-5-3'
p2788
sg5
F0.22719948436996454
sa(dp2789
g3
S'9-6-3'
p2790
sg5
F0.0
sa(dp2791
g3
S'9-7-4-2'
p2792
sg5
F1.3757736516357206
sa(dp2793
g3
S'9-6-3-1'
p2794
sg5
F1.117816091954023
sa(dp2795
g3
S'9-7-5-3-1'
p2796
sg5
F1.0076088716205278
sa(dp2797
g3
S'9-7-5-2'
p2798
sg5
F0.9936143039591318
sa(dp2799
g3
S'9-6-4-2'
p2800
sg5
F0.6445065755410583
sa(dp2801
g3
S'9-7-4-1'
p2802
sg5
F0.596168582375479
sa(dp2803
g3
S'9-7-5-3'
p2804
sg5
F0.5732390215148836
sa(dp2805
g3
S'9-6-4-1'
p2806
sg5
F0.5110016420361247
sa(dp2807
g3
S'9-8-6-4-2'
p2808
sg5
F0.0
sa(dp2809
g3
S'9-7-4-2-1'
p2810
sg5
F0.0
sa(dp2811
g3
S'9-6-3'
p2812
sg5
F0.0
sa(dp2813
g3
S'9-8-6-4-1'
p2814
sg5
F0.0
sa(dp2815
g3
S'9-6-4-2-1'
p2816
sg5
F0.0
sa(dp2817
g3
S'9-6-4-1'
p2818
sg5
F1.1933110367892976
sa(dp2819
g3
S'9-6-4-2'
p2820
sg5
F1.0475631238990017
sa(dp2821
g3
S'9-7-5-2'
p2822
sg5
F1.0292307692307694
sa(dp2823
g3
S'9-7-4-1'
p2824
sg5
F1.0165242165242165
sa(dp2825
g3
S'9-7-4-2'
p2826
sg5
F0.9630229419703104
sa(dp2827
g3
S'9-7-5-3-1'
p2828
sg5
F0.8891007583965331
sa(dp2829
g3
S'9-7-5-3'
p2830
sg5
F0.7978533094812165
sa(dp2831
g3
S'9-6-3-1'
p2832
sg5
F0.45743589743589746
sa(dp2833
g3
S'9-7-4-2-1'
p2834
sg5
F0.0
sa(dp2835
g3
S'9-6-3'
p2836
sg5
F0.0
sa(dp2837
g3
S'9-7-4'
p2838
sg5
F0.0
sa(dp2839
g3
S'9-6-4-1'
p2840
sg5
F1.7277777777777779
sa(dp2841
g3
S'9-6-4-2'
p2842
sg5
F1.5142322097378276
sa(dp2843
g3
S'9-7-4-1'
p2844
sg5
F0.9873015873015872
sa(dp2845
g3
S'9-7-5-3-1'
p2846
sg5
F0.8139118457300275
sa(dp2847
g3
S'9-6-3-1'
p2848
sg5
F0.7974358974358975
sa(dp2849
g3
S'9-7-5-2'
p2850
sg5
F0.7149425287356322
sa(dp2851
g3
S'9-7-4-2'
p2852
sg5
F0.6321138211382115
sa(dp2853
g3
S'9-7-5-3'
p2854
sg5
F0.15707070707070708
sa(dp2855
g3
S'9-8-6-4-2'
p2856
sg5
F0.0
sa(dp2857
g3
S'9-6-3'
p2858
sg5
F0.0
sa(dp2859
g3
S'9-7-5-2-1'
p2860
sg5
F0.0
sa(dp2861
g3
S'9-7-4-1'
p2862
sg5
F2.4000000000000004
sa(dp2863
g3
S'9-7-5-3-1'
p2864
sg5
F1.124812030075188
sa(dp2865
g3
S'9-7-5-3'
p2866
sg5
F0.9361702127659575
sa(dp2867
g3
S'9-7-4-2'
p2868
sg5
F0.7512195121951221
sa(dp2869
g3
S'9-6-4-2'
p2870
sg5
F0.7257731958762886
sa(dp2871
g3
S'9-7-5-2'
p2872
sg5
F0.5866666666666667
sa(dp2873
g3
S'9-6-4-1'
p2874
sg5
F0.4631578947368421
sa(dp2875
g3
S'9-6-3'
p2876
sg5
F0.0
sa(dp2877
g3
S'9-6-3-1'
p2878
sg5
F0.0
sa(dp2879
g3
S'9-7-4-2'
p2880
sg5
F1.099912655279503
sa(dp2881
g3
S'9-6-4-1'
p2882
sg5
F1.0754206730769231
sa(dp2883
g3
S'9-7-5-2'
p2884
sg5
F1.04202251552795
sa(dp2885
g3
S'9-7-4-1'
p2886
sg5
F1.0355902777777777
sa(dp2887
g3
S'9-7-5-3-1'
p2888
sg5
F0.9501289441747574
sa(dp2889
g3
S'9-6-3-1'
p2890
sg5
F0.909298780487805
sa(dp2891
g3
S'9-6-4-2'
p2892
sg5
F0.8223805147058824
sa(dp2893
g3
S'9-7-5-3'
p2894
sg5
F0.5745398116438356
sa(dp2895
g3
S'9-6-4-2-1'
p2896
sg5
F0.0
sa(dp2897
g3
S'9-6-3'
p2898
sg5
F0.0
sa(dp2899
g3
S'9-6-4-1'
p2900
sg5
F2.181311881188119
sa(dp2901
g3
S'9-7-4-2'
p2902
sg5
F0.9184471078686816
sa(dp2903
g3
S'9-6-4-2'
p2904
sg5
F0.8900070334902344
sa(dp2905
g3
S'9-7-5-2'
p2906
sg5
F0.8544498517648376
sa(dp2907
g3
S'9-7-5-3'
p2908
sg5
F0.8512436609514609
sa(dp2909
g3
S'9-7-5-3-1'
p2910
sg5
F0.7122651040614266
sa(dp2911
g3
S'9-7-4-1'
p2912
sg5
F0.4474485910129474
sa(dp2913
g3
S'9-8-6-4-2'
p2914
sg5
F0.0
sa(dp2915
g3
S'9-6-3'
p2916
sg5
F0.0
sa(dp2917
g3
S'9-6-3-1'
p2918
sg5
F0.0
sa(dp2919
g3
S'9-7-5-2'
p2920
sg5
F1.5960793082886107
sa(dp2921
g3
S'9-7-4-1'
p2922
sg5
F1.3968492123030758
sa(dp2923
g3
S'9-7-5-3-1'
p2924
sg5
F1.1012398876285827
sa(dp2925
g3
S'9-6-4-2'
p2926
sg5
F0.8617378225153303
sa(dp2927
g3
S'9-6-3-1'
p2928
sg5
F0.6367989056087551
sa(dp2929
g3
S'9-7-5-3'
p2930
sg5
F0.5773643410852713
sa(dp2931
g3
S'9-7-4-2'
p2932
sg5
F0.524876673713883
sa(dp2933
g3
S'9-6-4-1'
p2934
sg5
F0.3701053468495329
sa(dp2935
g3
S'9-6-3'
p2936
sg5
F0.0
sa(dp2937
g3
S'9-6-4-1'
p2938
sg5
F1.555889724310777
sa(dp2939
g3
S'9-7-4-1'
p2940
sg5
F1.4780952380952384
sa(dp2941
g3
S'9-7-5-2'
p2942
sg5
F1.1517625231910946
sa(dp2943
g3
S'9-6-3-1'
p2944
sg5
F1.1085714285714285
sa(dp2945
g3
S'9-7-4-2'
p2946
sg5
F1.0762829403606102
sa(dp2947
g3
S'9-6-4-2'
p2948
sg5
F1.0143790849673202
sa(dp2949
g3
S'9-7-5-3'
p2950
sg5
F0.8211640211640211
sa(dp2951
g3
S'9-7-5-3-1'
p2952
sg5
F0.7563352826510721
sa(dp2953
g3
S'9-8-5-3-1'
p2954
sg5
F0.0
sa(dp2955
g3
S'9-6-3'
p2956
sg5
F0.0
sa(dp2957
g3
S'9-6-4-2-1'
p2958
sg5
F0.0
sa(dp2959
g3
S'9-7-5-2-1'
p2960
sg5
F0.0
sa(dp2961
g3
S'9-7-5-2'
p2962
sg5
F1.1011783827712311
sa(dp2963
g3
S'9-6-4-1'
p2964
sg5
F1.0952260671886838
sa(dp2965
g3
S'9-7-5-3-1'
p2966
sg5
F1.0862906563841142
sa(dp2967
g3
S'9-6-4-2'
p2968
sg5
F1.0194557103391522
sa(dp2969
g3
S'9-7-4-2'
p2970
sg5
F0.7560329195145766
sa(dp2971
g3
S'9-6-3-1'
p2972
sg5
F0.6986786980341605
sa(dp2973
g3
S'9-7-5-3'
p2974
sg5
F0.5860817177724569
sa(dp2975
g3
S'9-8-5-3-1'
p2976
sg5
F0.0
sa(dp2977
g3
S'9-6-3'
p2978
sg5
F0.0
sa(dp2979
g3
S'9-5-3-1'
p2980
sg5
F0.0
sa(dp2981
g3
S'9-6-4-2-1'
p2982
sg5
F0.0
sa(dp2983
g3
S'9-7-4-1'
p2984
sg5
F0.0
sa(dp2985
g3
S'9-6-3'
p2986
sg5
F3.1085526315789473
sa(dp2987
g3
S'9-7-4-2'
p2988
sg5
F1.1842105263157896
sa(dp2989
g3
S'9-7-5-2'
p2990
sg5
F0.933252004182642
sa(dp2991
g3
S'9-7-5-3-1'
p2992
sg5
F0.9246575342465754
sa(dp2993
g3
S'9-6-4-2'
p2994
sg5
F0.8777089783281734
sa(dp2995
g3
S'9-6-4-1'
p2996
sg5
F0.8725761772853186
sa(dp2997
g3
S'9-7-4-1'
p2998
sg5
F0.8289473684210527
sa(dp2999
g3
S'9-7-5-3'
p3000
sg5
F0.7236842105263158
sa(dp3001
g3
S'9-6-3-1'
p3002
sg5
F0.5921052631578947
sa(dp3003
g3
S'9-6-3'
p3004
sg5
F1.8813186813186815
sa(dp3005
g3
S'9-7-5-3'
p3006
sg5
F1.810769230769231
sa(dp3007
g3
S'9-7-5-2'
p3008
sg5
F1.4342726580350345
sa(dp3009
g3
S'9-6-4-2'
p3010
sg5
F1.1873896595208073
sa(dp3011
g3
S'9-6-4-1'
p3012
sg5
F1.1619909502262444
sa(dp3013
g3
S'9-6-3-1'
p3014
sg5
F0.8230769230769232
sa(dp3015
g3
S'9-7-5-3-1'
p3016
sg5
F0.5316770186335403
sa(dp3017
g3
S'9-7-4-2'
p3018
sg5
F0.47888111888111895
sa(dp3019
g3
S'9-7-4-1'
p3020
sg5
F0.43897435897435905
sa(dp3021
g3
S'9-7-4-2-1'
p3022
sg5
F0.0
sa(dp3023
g3
S'9-6-4-2-1'
p3024
sg5
F0.0
sa(dp3025
g3
S'9-7-4-1'
p3026
sg5
F1.854320987654321
sa(dp3027
g3
S'9-7-4-2'
p3028
sg5
F1.1003663003663005
sa(dp3029
g3
S'9-6-4-2'
p3030
sg5
F0.9446540880503144
sa(dp3031
g3
S'9-7-5-2'
p3032
sg5
F0.9421146953405017
sa(dp3033
g3
S'9-7-5-3-1'
p3034
sg5
F0.7611486486486486
sa(dp3035
g3
S'9-7-5-3'
p3036
sg5
F0.4876623376623377
sa(dp3037
g3
S'9-6-4-1'
p3038
sg5
F0.46358024691358024
sa(dp3039
g3
S'9-6-3'
p3040
sg5
F0.0
sa(dp3041
g3
S'9-6-3-1'
p3042
sg5
F0.0
sa(dp3043
g3
S'9-7-5-2-1'
p3044
sg5
F0.0
sa(dp3045
g3
S'9-6-4-1'
p3046
sg5
F1.4671052631578947
sa(dp3047
g3
S'9-6-4-2'
p3048
sg5
F1.4569872958257715
sa(dp3049
g3
S'9-6-3-1'
p3050
sg5
F1.3647490820073438
sa(dp3051
g3
S'9-7-4-2'
p3052
sg5
F0.8383458646616541
sa(dp3053
g3
S'9-7-5-3-1'
p3054
sg5
F0.7641173245614035
sa(dp3055
g3
S'9-7-5-3'
p3056
sg5
F0.7572156196943973
sa(dp3057
g3
S'9-7-4-1'
p3058
sg5
F0.7491601343784995
sa(dp3059
g3
S'9-7-5-2'
p3060
sg5
F0.44570286475682874
sa(dp3061
g3
S'9-6-4'
p3062
sg5
F0.0
sa(dp3063
g3
S'9-6-3'
p3064
sg5
F0.0
sa(dp3065
g3
S'9-8-5-3'
p3066
sg5
F0.0
sa(dp3067
g3
S'9-5-2'
p3068
sg5
F0.0
sa(dp3069
g3
S'9-6-4-1'
p3070
sg5
F1.8483309143686504
sa(dp3071
g3
S'9-7-4-2'
p3072
sg5
F1.4640900791235545
sa(dp3073
g3
S'9-7-5-2'
p3074
sg5
F1.1124213836477987
sa(dp3075
g3
S'9-6-4-2'
p3076
sg5
F1.1022156828803877
sa(dp3077
g3
S'9-6-3-1'
p3078
sg5
F0.9708404802744426
sa(dp3079
g3
S'9-7-5-3-1'
p3080
sg5
F0.8925468931555358
sa(dp3081
g3
S'9-7-4-1'
p3082
sg5
F0.8581536388140162
sa(dp3083
g3
S'9-7-5-3'
p3084
sg5
F0.08090337335620354
sa(dp3085
g3
S'9-8-5-3-1'
p3086
sg5
F0.0
sa(dp3087
g3
S'9-6-3'
p3088
sg5
F0.0
sa(dp3089
g3
S'9-7-5-2-1'
p3090
sg5
F0.0
sa(dp3091
g3
S'9-6-3'
p3092
sg5
F2.2963636363636364
sa(dp3093
g3
S'9-6-3-1'
p3094
sg5
F1.472027972027972
sa(dp3095
g3
S'9-7-5-2'
p3096
sg5
F1.102773497688752
sa(dp3097
g3
S'9-7-5-3-1'
p3098
sg5
F1.09587852494577
sa(dp3099
g3
S'9-7-4-2'
p3100
sg5
F1.0501662971175165
sa(dp3101
g3
S'9-6-4-1'
p3102
sg5
F0.9771760154738879
sa(dp3103
g3
S'9-7-4-1'
p3104
sg5
F0.6561038961038961
sa(dp3105
g3
S'9-6-4-2'
p3106
sg5
F0.5555718475073315
sa(dp3107
g3
S'9-7-5-3'
p3108
sg5
F0.47840909090909084
sa(dp3109
g3
S'9-7-5-2'
p3110
sg5
F1.5206736035049289
sa(dp3111
g3
S'9-7-5-3-1'
p3112
sg5
F1.0763746129225324
sa(dp3113
g3
S'9-6-4-1'
p3114
sg5
F1.0648748841519924
sa(dp3115
g3
S'9-6-4-2'
p3116
sg5
F0.945820549277857
sa(dp3117
g3
S'9-7-4-2'
p3118
sg5
F0.7238365225608316
sa(dp3119
g3
S'9-7-4-1'
p3120
sg5
F0.6698406529343178
sa(dp3121
g3
S'9-7-5-3'
p3122
sg5
F0.40042815891665834
sa(dp3123
g3
S'9-6-3-1'
p3124
sg5
F0.34608433734939764
sa(dp3125
g3
S'9-6-3'
p3126
sg5
F0.0
sa(dp3127
g3
S'9-7-4-1'
p3128
sg5
F1.6768896401835307
sa(dp3129
g3
S'9-6-3'
p3130
sg5
F1.636963696369637
sa(dp3131
g3
S'9-7-4-2'
p3132
sg5
F1.2061837762723642
sa(dp3133
g3
S'9-7-5-2'
p3134
sg5
F0.9964126847467357
sa(dp3135
g3
S'9-7-5-3-1'
p3136
sg5
F0.996011713847441
sa(dp3137
g3
S'9-6-3-1'
p3138
sg5
F0.9821782178217822
sa(dp3139
g3
S'9-6-4-1'
p3140
sg5
F0.7015558698727016
sa(dp3141
g3
S'9-6-4-2'
p3142
sg5
F0.6868379145606868
sa(dp3143
g3
S'9-7-5-3'
p3144
sg5
F0.6307566536470162
sa(dp3145
g3
S'9-8-6-4-2'
p3146
sg5
F0.0
sa(dp3147
g3
S'9-8-6-3-1'
p3148
sg5
F0.0
sa(dp3149
g3
S'9-7-5-2-1'
p3150
sg5
F0.0
sa(dp3151
g3
S'9-6-3'
p3152
sg5
F1.7181818181818183
sa(dp3153
g3
S'9-7-5-2'
p3154
sg5
F1.614399023794997
sa(dp3155
g3
S'9-6-3-1'
p3156
sg5
F1.1987315010570825
sa(dp3157
g3
S'9-6-4-1'
p3158
sg5
F1.1931818181818183
sa(dp3159
g3
S'9-6-4-2'
p3160
sg5
F1.0540992749581708
sa(dp3161
g3
S'9-7-4-1'
p3162
sg5
F0.9545454545454546
sa(dp3163
g3
S'9-7-5-3-1'
p3164
sg5
F0.7529111338100103
sa(dp3165
g3
S'9-7-4-2'
p3166
sg5
F0.675
sa(dp3167
g3
S'9-7-5-3'
p3168
sg5
F0.5053475935828877
sa(dp3169
g3
S'9-6-4-1'
p3170
sg5
F1.6179529282977558
sa(dp3171
g3
S'9-7-5-2'
p3172
sg5
F1.2112663906142167
sa(dp3173
g3
S'9-7-4-1'
p3174
sg5
F1.173015873015873
sa(dp3175
g3
S'9-7-5-3-1'
p3176
sg5
F1.0553083978689515
sa(dp3177
g3
S'9-7-4-2'
p3178
sg5
F0.9547803617571059
sa(dp3179
g3
S'9-7-5-3'
p3180
sg5
F0.8260675162083612
sa(dp3181
g3
S'9-6-4-2'
p3182
sg5
F0.6639712488769093
sa(dp3183
g3
S'9-6-3-1'
p3184
sg5
F0.1675736961451247
sa(dp3185
g3
S'9-6-3'
p3186
sg5
F0.0
sa(dp3187
g3
S'9-6-4-1'
p3188
sg5
F1.555889724310777
sa(dp3189
g3
S'9-7-4-1'
p3190
sg5
F1.4780952380952384
sa(dp3191
g3
S'9-7-5-2'
p3192
sg5
F1.1517625231910946
sa(dp3193
g3
S'9-6-3-1'
p3194
sg5
F1.1085714285714285
sa(dp3195
g3
S'9-7-4-2'
p3196
sg5
F1.0762829403606102
sa(dp3197
g3
S'9-6-4-2'
p3198
sg5
F1.0143790849673202
sa(dp3199
g3
S'9-7-5-3'
p3200
sg5
F0.8211640211640211
sa(dp3201
g3
S'9-7-5-3-1'
p3202
sg5
F0.7563352826510721
sa(dp3203
g3
S'9-8-5-3-1'
p3204
sg5
F0.0
sa(dp3205
g3
S'9-6-3'
p3206
sg5
F0.0
sa(dp3207
g3
S'9-6-4-2-1'
p3208
sg5
F0.0
sa(dp3209
g3
S'9-7-5-2-1'
p3210
sg5
F0.0
sa(dp3211
g3
S'9-6-4-1'
p3212
sg5
F1.8483309143686504
sa(dp3213
g3
S'9-7-4-2'
p3214
sg5
F1.4640900791235545
sa(dp3215
g3
S'9-7-5-2'
p3216
sg5
F1.1124213836477987
sa(dp3217
g3
S'9-6-4-2'
p3218
sg5
F1.1022156828803877
sa(dp3219
g3
S'9-6-3-1'
p3220
sg5
F0.9708404802744426
sa(dp3221
g3
S'9-7-5-3-1'
p3222
sg5
F0.8925468931555358
sa(dp3223
g3
S'9-7-4-1'
p3224
sg5
F0.8581536388140162
sa(dp3225
g3
S'9-7-5-3'
p3226
sg5
F0.08090337335620354
sa(dp3227
g3
S'9-8-5-3-1'
p3228
sg5
F0.0
sa(dp3229
g3
S'9-6-3'
p3230
sg5
F0.0
sa(dp3231
g3
S'9-7-5-2-1'
p3232
sg5
F0.0
sa(dp3233
g3
S'9-7-4-1'
p3234
sg5
F1.7195723684210527
sa(dp3235
g3
S'9-6-3'
p3236
sg5
F1.2100694444444444
sa(dp3237
g3
S'9-7-5-3-1'
p3238
sg5
F1.0005521201413428
sa(dp3239
g3
S'9-7-4-2'
p3240
sg5
F0.896875
sa(dp3241
g3
S'9-7-5-2'
p3242
sg5
F0.8328125000000001
sa(dp3243
g3
S'9-6-4-2'
p3244
sg5
F0.7891757246376812
sa(dp3245
g3
S'9-6-4-1'
p3246
sg5
F0.7598110465116279
sa(dp3247
g3
S'9-7-5-3'
p3248
sg5
F0.613556338028169
sa(dp3249
g3
S'9-6-3-1'
p3250
sg5
F0.4840277777777778
sa(dp3251
g3
S'9-6-4-2-1'
p3252
sg5
F0.0
sa(dp3253
g3
S'9-7-5-1'
p3254
sg5
F0.0
sa(dp3255
g3
S'9-7-5-3'
p3256
sg5
F1.3819674995631661
sa(dp3257
g3
S'9-6-3'
p3258
sg5
F1.2353951890034365
sa(dp3259
g3
S'9-7-4-1'
p3260
sg5
F1.170374389582203
sa(dp3261
g3
S'9-7-5-3-1'
p3262
sg5
F1.0484603906673902
sa(dp3263
g3
S'9-7-4-2'
p3264
sg5
F0.9039476992708071
sa(dp3265
g3
S'9-6-4-2'
p3266
sg5
F0.7487243569717796
sa(dp3267
g3
S'9-7-5-2'
p3268
sg5
F0.6662805513726399
sa(dp3269
g3
S'9-6-4-1'
p3270
sg5
F0.5111980092428013
sa(dp3271
g3
S'9-6-3-1'
p3272
sg5
F0.49415807560137454
sa(dp3273
g3
S'9-6-4-2-1'
p3274
sg5
F0.0
sa(dp3275
g3
S'9-7-5-2'
p3276
sg5
F1.3928050052137642
sa(dp3277
g3
S'9-7-5-3-1'
p3278
sg5
F1.145383707201889
sa(dp3279
g3
S'9-6-4-1'
p3280
sg5
F1.0247813411078717
sa(dp3281
g3
S'9-6-4-2'
p3282
sg5
F0.7621811224489796
sa(dp3283
g3
S'9-7-4-2'
p3284
sg5
F0.5316806722689075
sa(dp3285
g3
S'9-7-5-3'
p3286
sg5
F0.34931677018633545
sa(dp3287
g3
S'9-7-4-1'
p3288
sg5
F0.24494773519163762
sa(dp3289
g3
S'9-6-3-1'
p3290
sg5
F0.20495626822157434
sa(dp3291
g3
S'9-7-4-2-1'
p3292
sg5
F0.0
sa(dp3293
g3
S'9-6-3'
p3294
sg5
F0.0
sa(dp3295
g3
S'9-6-4-2-1'
p3296
sg5
F0.0
sa(dp3297
g3
S'9-7-5-3-1'
p3298
sg5
F1.3098455598455598
sa(dp3299
g3
S'9-6-3-1'
p3300
sg5
F1.15
sa(dp3301
g3
S'9-6-4-1'
p3302
sg5
F1.1129032258064515
sa(dp3303
g3
S'9-7-4-2'
p3304
sg5
F0.9387755102040816
sa(dp3305
g3
S'9-6-4-2'
p3306
sg5
F0.8891752577319587
sa(dp3307
g3
S'9-7-4-1'
p3308
sg5
F0.8214285714285714
sa(dp3309
g3
S'9-7-5-2'
p3310
sg5
F0.6557017543859649
sa(dp3311
g3
S'9-7-5-3'
p3312
sg5
F0.5366666666666667
sa(dp3313
g3
S'9-7-4-2-1'
p3314
sg5
F0.0
sa(dp3315
g3
S'9-6-3'
p3316
sg5
F0.0
sa(dp3317
g3
S'9-7-4-2'
p3318
sg5
F1.099912655279503
sa(dp3319
g3
S'9-6-4-1'
p3320
sg5
F1.0754206730769231
sa(dp3321
g3
S'9-7-5-2'
p3322
sg5
F1.04202251552795
sa(dp3323
g3
S'9-7-4-1'
p3324
sg5
F1.0355902777777777
sa(dp3325
g3
S'9-7-5-3-1'
p3326
sg5
F0.9501289441747574
sa(dp3327
g3
S'9-6-3-1'
p3328
sg5
F0.909298780487805
sa(dp3329
g3
S'9-6-4-2'
p3330
sg5
F0.8223805147058824
sa(dp3331
g3
S'9-7-5-3'
p3332
sg5
F0.5745398116438356
sa(dp3333
g3
S'9-6-4-2-1'
p3334
sg5
F0.0
sa(dp3335
g3
S'9-6-3'
p3336
sg5
F0.0
sa(dp3337
g3
S'9-7-4-2'
p3338
sg5
F1.9041106298913455
sa(dp3339
g3
S'9-6-4-1'
p3340
sg5
F1.4148599819331527
sa(dp3341
g3
S'9-7-5-3-1'
p3342
sg5
F0.8475378787878788
sa(dp3343
g3
S'9-7-4-1'
p3344
sg5
F0.7796167247386759
sa(dp3345
g3
S'9-7-5-2'
p3346
sg5
F0.7276422764227642
sa(dp3347
g3
S'9-6-4-2'
p3348
sg5
F0.6841081231325133
sa(dp3349
g3
S'9-6-3-1'
p3350
sg5
F0.6614929785661493
sa(dp3351
g3
S'9-7-5-3'
p3352
sg5
F0.5476877349418655
sa(dp3353
g3
S'9-6-3'
p3354
sg5
F0.0
sa(dp3355
g3
S'9-8-5-3'
p3356
sg5
F0.0
sa(dp3357
g3
S'9-7-5-2-1'
p3358
sg5
F0.0
sa(dp3359
g3
S'9-7-5-2'
p3360
sg5
F1.7882466049753636
sa(dp3361
g3
S'9-7-4-2'
p3362
sg5
F1.4131948841332151
sa(dp3363
g3
S'9-7-5-3-1'
p3364
sg5
F1.024478346078469
sa(dp3365
g3
S'9-6-3-1'
p3366
sg5
F0.7798742138364779
sa(dp3367
g3
S'9-6-4-1'
p3368
sg5
F0.47747400847131305
sa(dp3369
g3
S'9-7-5-3'
p3370
sg5
F0.3544882790165809
sa(dp3371
g3
S'9-6-4-2'
p3372
sg5
F0.24627606752730882
sa(dp3373
g3
S'9-7-4-2-1'
p3374
sg5
F0.0
sa(dp3375
g3
S'9-6-3'
p3376
sg5
F0.0
sa(dp3377
g3
S'9-7-4-1'
p3378
sg5
F0.0
sa(dp3379
g3
S'9-6-4-1'
p3380
sg5
F1.4671052631578947
sa(dp3381
g3
S'9-6-4-2'
p3382
sg5
F1.4569872958257715
sa(dp3383
g3
S'9-6-3-1'
p3384
sg5
F1.3647490820073438
sa(dp3385
g3
S'9-7-4-2'
p3386
sg5
F0.8383458646616541
sa(dp3387
g3
S'9-7-5-3-1'
p3388
sg5
F0.7641173245614035
sa(dp3389
g3
S'9-7-5-3'
p3390
sg5
F0.7572156196943973
sa(dp3391
g3
S'9-7-4-1'
p3392
sg5
F0.7491601343784995
sa(dp3393
g3
S'9-7-5-2'
p3394
sg5
F0.44570286475682874
sa(dp3395
g3
S'9-6-4'
p3396
sg5
F0.0
sa(dp3397
g3
S'9-6-3'
p3398
sg5
F0.0
sa(dp3399
g3
S'9-8-5-3'
p3400
sg5
F0.0
sa(dp3401
g3
S'9-5-2'
p3402
sg5
F0.0
sa(dp3403
g3
S'9-6-3'
p3404
sg5
F1.411172161172161
sa(dp3405
g3
S'9-7-5-2'
p3406
sg5
F1.3558320764203116
sa(dp3407
g3
S'9-7-4-1'
p3408
sg5
F1.2805080721747388
sa(dp3409
g3
S'9-7-4-2'
p3410
sg5
F1.1532929845112585
sa(dp3411
g3
S'9-7-5-3-1'
p3412
sg5
F0.950843274372686
sa(dp3413
g3
S'9-6-4-2'
p3414
sg5
F0.8341595441595441
sa(dp3415
g3
S'9-6-4-1'
p3416
sg5
F0.6585470085470085
sa(dp3417
g3
S'9-6-3-1'
p3418
sg5
F0.5810708898944192
sa(dp3419
g3
S'9-7-5-3'
p3420
sg5
F0.5199055330634278
sa(dp3421
g3
S'9-6-4'
p3422
sg5
F0.0
sa(dp3423
g3
S'9-8-6-3-1'
p3424
sg5
F0.0
sa(dp3425
g3
S'9-7-5-2-1'
p3426
sg5
F0.0
sa(dp3427
g3
S'9-7-4-1'
p3428
sg5
F2.1303092783505155
sa(dp3429
g3
S'9-6-4-2'
p3430
sg5
F1.36558287073751
sa(dp3431
g3
S'9-7-5-2'
p3432
sg5
F1.1283417787873493
sa(dp3433
g3
S'9-7-4-2'
p3434
sg5
F0.9763917525773196
sa(dp3435
g3
S'9-6-4-1'
p3436
sg5
F0.9510309278350515
sa(dp3437
g3
S'9-6-3-1'
p3438
sg5
F0.9182367579097049
sa(dp3439
g3
S'9-7-5-3'
p3440
sg5
F0.8876288659793814
sa(dp3441
g3
S'9-7-5-3-1'
p3442
sg5
F0.634020618556701
sa(dp3443
g3
S'9-6-3'
p3444
sg5
F0.0
sa(dp3445
g3
S'9-6-4-2'
p3446
sg5
F1.2035323801513877
sa(dp3447
g3
S'9-7-4-2'
p3448
sg5
F1.1366694701429774
sa(dp3449
g3
S'9-7-5-2'
p3450
sg5
F1.0516742455560149
sa(dp3451
g3
S'9-7-5-3-1'
p3452
sg5
F0.894232424677188
sa(dp3453
g3
S'9-6-3-1'
p3454
sg5
F0.816431322207959
sa(dp3455
g3
S'9-6-4-1'
p3456
sg5
F0.8023549201009252
sa(dp3457
g3
S'9-7-4-1'
p3458
sg5
F0.775609756097561
sa(dp3459
g3
S'9-7-5-3'
p3460
sg5
F0.5322812051649928
sa(dp3461
g3
S'9-8-6-4-2'
p3462
sg5
F0.0
sa(dp3463
g3
S'9-6-4'
p3464
sg5
F0.0
sa(dp3465
g3
S'9-6-3'
p3466
sg5
F0.0
sa(dp3467
g3
S'9-6-3'
p3468
sg5
F2.2589531680440773
sa(dp3469
g3
S'9-6-4-1'
p3470
sg5
F1.3804713804713806
sa(dp3471
g3
S'9-7-4-2'
p3472
sg5
F1.2742812742812744
sa(dp3473
g3
S'9-7-5-3-1'
p3474
sg5
F0.9873570138470801
sa(dp3475
g3
S'9-6-4-2'
p3476
sg5
F0.9412304866850322
sa(dp3477
g3
S'9-7-5-2'
p3478
sg5
F0.9289153214386859
sa(dp3479
g3
S'9-7-4-1'
p3480
sg5
F0.8874458874458874
sa(dp3481
g3
S'9-6-3-1'
p3482
sg5
F0.2958152958152958
sa(dp3483
g3
S'9-7-5-3'
p3484
sg5
F0.18824609733700645
sa(dp3485
g3
S'9-8-6-4-2'
p3486
sg5
F0.0
sa(dp3487
g3
S'9-6-3-1'
p3488
sg5
F1.3841698841698842
sa(dp3489
g3
S'9-7-4-2'
p3490
sg5
F1.3544027898866609
sa(dp3491
g3
S'9-7-5-2'
p3492
sg5
F1.085623438564615
sa(dp3493
g3
S'9-7-5-3-1'
p3494
sg5
F0.8647910205287254
sa(dp3495
g3
S'9-6-4-1'
p3496
sg5
F0.8425381903642774
sa(dp3497
g3
S'9-6-4-2'
p3498
sg5
F0.8382504642046626
sa(dp3499
g3
S'9-7-5-3'
p3500
sg5
F0.7401463963963965
sa(dp3501
g3
S'9-7-4-1'
p3502
sg5
F0.49688149688149685
sa(dp3503
g3
S'9-6-3'
p3504
sg5
F0.0
sa(dp3505
g3
S'9-7-5-2'
p3506
sg5
F1.627026511539195
sa(dp3507
g3
S'9-7-4-1'
p3508
sg5
F1.144367929168716
sa(dp3509
g3
S'9-7-4-2'
p3510
sg5
F1.0406901509705246
sa(dp3511
g3
S'9-7-5-3-1'
p3512
sg5
F0.8389578387474832
sa(dp3513
g3
S'9-6-4-2'
p3514
sg5
F0.7816107751511819
sa(dp3515
g3
S'9-7-5-3'
p3516
sg5
F0.491367020434025
sa(dp3517
g3
S'9-6-4-1'
p3518
sg5
F0.4675911968646367
sa(dp3519
g3
S'9-6-3-1'
p3520
sg5
F0.381455976389572
sa(dp3521
g3
S'9-7-4-2-1'
p3522
sg5
F0.0
sa(dp3523
g3
S'9-6-3'
p3524
sg5
F0.0
sa(dp3525
g3
S'9-6-4-2-1'
p3526
sg5
F0.0
sa(dp3527
g3
S'9-7-4'
p3528
sg5
F0.0
sa(dp3529
g3
S'9-7-5-2-1'
p3530
sg5
F0.0
sa(dp3531
g3
S'9-6-4-1'
p3532
sg5
F1.7277777777777779
sa(dp3533
g3
S'9-6-4-2'
p3534
sg5
F1.5142322097378276
sa(dp3535
g3
S'9-7-4-1'
p3536
sg5
F0.9873015873015872
sa(dp3537
g3
S'9-7-5-3-1'
p3538
sg5
F0.8139118457300275
sa(dp3539
g3
S'9-6-3-1'
p3540
sg5
F0.7974358974358975
sa(dp3541
g3
S'9-7-5-2'
p3542
sg5
F0.7149425287356322
sa(dp3543
g3
S'9-7-4-2'
p3544
sg5
F0.6321138211382115
sa(dp3545
g3
S'9-7-5-3'
p3546
sg5
F0.15707070707070708
sa(dp3547
g3
S'9-8-6-4-2'
p3548
sg5
F0.0
sa(dp3549
g3
S'9-6-3'
p3550
sg5
F0.0
sa(dp3551
g3
S'9-7-5-2-1'
p3552
sg5
F0.0
sa(dp3553
g3
S'9-7-4-1'
p3554
sg5
F2.307692307692308
sa(dp3555
g3
S'9-7-5-2'
p3556
sg5
F1.2880143112701252
sa(dp3557
g3
S'9-6-3-1'
p3558
sg5
F1.2587412587412588
sa(dp3559
g3
S'9-7-5-3-1'
p3560
sg5
F0.9169638308711157
sa(dp3561
g3
S'9-6-4-2'
p3562
sg5
F0.9109311740890689
sa(dp3563
g3
S'9-7-4-2'
p3564
sg5
F0.8241758241758242
sa(dp3565
g3
S'9-6-4-1'
p3566
sg5
F0.4326923076923077
sa(dp3567
g3
S'9-7-5-3'
p3568
sg5
F0.3220035778175313
sa(dp3569
g3
S'9-6-4-2-1'
p3570
sg5
F0.0
sa(dp3571
g3
S'9-6-3'
p3572
sg5
F0.0
sa(dp3573
g3
S'9-6-3'
p3574
sg5
F2.997340425531915
sa(dp3575
g3
S'9-7-4-1'
p3576
sg5
F1.8445171849427169
sa(dp3577
g3
S'9-6-3-1'
p3578
sg5
F1.5370976541189307
sa(dp3579
g3
S'9-7-5-3-1'
p3580
sg5
F1.0476141293121257
sa(dp3581
g3
S'9-7-5-2'
p3582
sg5
F1.0140256165978618
sa(dp3583
g3
S'9-6-4-2'
p3584
sg5
F0.7992907801418438
sa(dp3585
g3
S'9-7-4-2'
p3586
sg5
F0.7173122385888344
sa(dp3587
g3
S'9-7-5-3'
p3588
sg5
F0.6196052559239101
sa(dp3589
g3
S'9-6-4-1'
p3590
sg5
F0.47017104714226116
sa(dp3591
g3
S'9-8-6-4-2'
p3592
sg5
F0.0
sa(dp3593
g3
S'9-7-5-2-1'
p3594
sg5
F0.0
sas.