(dp0
I2
(lp1
(dp2
S'pattern'
p3
S'1'
p4
sS'oe'
p5
F743.8235294117648
sa(dp6
g3
S'2'
p7
sg5
F0.7425858862679848
sa(dp8
g3
S'2-1'
p9
sg5
F0.0
sasI3
(lp10
(dp11
g3
S'3-1'
p12
sg5
F0.9656626506024095
sa(dp13
g3
S'3'
p14
sg5
F0.44270650263620387
sa(dp15
g3
S'3-2'
p16
sg5
F0.0
sa(dp17
g3
S'3-2-1'
p18
sg5
F0.0
sasI4
(lp19
(dp20
g3
S'4-1'
p21
sg5
F3.3466500000000003
sa(dp22
g3
S'4-2'
p23
sg5
F0.3977392065344224
sa(dp24
g3
S'4-2-1'
p25
sg5
F0.0
sa(dp26
g3
S'4-3-1'
p27
sg5
F0.0
sa(dp28
g3
S'4'
p29
sg5
F0.0
sa(dp30
g3
S'4-3'
p31
sg5
F0.0
sa(dp32
g3
S'4-3-2'
p33
sg5
F0.0
sasI5
(lp34
(dp35
g3
S'4-1'
p36
sg5
F616.75
sa(dp37
g3
S'5-3-1'
p38
sg5
F0.9547213622291021
sa(dp39
g3
S'5-3'
p40
sg5
F0.4965780998389694
sa(dp41
g3
S'5-2'
p42
sg5
F0.43280701754385964
sa(dp43
g3
S'5-4-2'
p44
sg5
F0.0
sa(dp45
g3
S'5-4-3'
p46
sg5
F0.0
sa(dp47
g3
S'5-3-2'
p48
sg5
F0.0
sa(dp49
g3
S'5-4-2-1'
p50
sg5
F0.0
sa(dp51
g3
S'5-1'
p52
sg5
F0.0
sa(dp53
g3
S'5-2-1'
p54
sg5
F0.0
sa(dp55
g3
S'5'
p56
sg5
F0.0
sa(dp57
g3
S'5-4-3-1'
p58
sg5
F0.0
sa(dp59
g3
S'5-4'
p60
sg5
F0.0
sa(dp61
g3
S'5-4-1'
p62
sg5
F0.0
sa(dp63
g3
S'5-3-2-1'
p64
sg5
F0.0
sasI6
(lp65
(dp66
g3
S'6-4-1'
p67
sg5
F4.379012841091493
sa(dp68
g3
S'6-4-2'
p69
sg5
F0.5227317264354302
sa(dp70
g3
S'6-3-1'
p71
sg5
F0.1577543585740307
sa(dp72
g3
S'6-4'
p73
sg5
F0.0
sa(dp74
g3
S'6-3-2-1'
p75
sg5
F0.0
sa(dp76
g3
S'6-5-2'
p77
sg5
F0.0
sa(dp78
g3
S'6-5-1'
p79
sg5
F0.0
sa(dp80
g3
S'6-3'
p81
sg5
F0.0
sa(dp82
g3
S'6-5-3-2'
p83
sg5
F0.0
sa(dp84
g3
S'6-5-4-1'
p85
sg5
F0.0
sa(dp86
g3
S'6-4-3-2'
p87
sg5
F0.0
sa(dp88
g3
S'6-1'
p89
sg5
F0.0
sa(dp90
g3
S'6-5-3'
p91
sg5
F0.0
sa(dp92
g3
S'6-2'
p93
sg5
F0.0
sa(dp94
g3
S'6-5-3-2-1'
p95
sg5
F0.0
sa(dp96
g3
S'6-4-3'
p97
sg5
F0.0
sa(dp98
g3
S'6-5-3-1'
p99
sg5
F0.0
sa(dp100
g3
S'6-4-2-1'
p101
sg5
F0.0
sa(dp102
g3
S'6-3-2'
p103
sg5
F0.0
sa(dp104
g3
S'6-4-3-1'
p105
sg5
F0.0
sa(dp106
g3
S'6-5-4-2'
p107
sg5
F0.0
sasI7
(lp108
(dp109
g3
S'6-4-1'
p110
sg5
F556.6153846153846
sa(dp111
g3
S'7-6-4-2'
p112
sg5
F5.538461538461539
sa(dp113
g3
S'7-5-3-1'
p114
sg5
F1.2034927234927235
sa(dp115
g3
S'7-5-2'
p116
sg5
F0.5473110959836623
sa(dp117
g3
S'7-6-4-3-2'
p118
sg5
F0.0
sa(dp119
g3
S'7-2'
p120
sg5
F0.0
sa(dp121
g3
S'7-5-1'
p122
sg5
F0.0
sa(dp123
g3
S'7-5'
p124
sg5
F0.0
sa(dp125
g3
S'7-4-1'
p126
sg5
F0.0
sa(dp127
g3
S'7-6-4-1'
p128
sg5
F0.0
sa(dp129
g3
S'7-5-3-2-1'
p130
sg5
F0.0
sa(dp131
g3
S'7-4'
p132
sg5
F0.0
sa(dp133
g3
S'7-5-4'
p134
sg5
F0.0
sa(dp135
g3
S'7-5-3-2'
p136
sg5
F0.0
sa(dp137
g3
S'7-5-4-1'
p138
sg5
F0.0
sa(dp139
g3
S'7-6-2'
p140
sg5
F0.0
sa(dp141
g3
S'7-4-3-2'
p142
sg5
F0.0
sa(dp143
g3
S'7-5-2-1'
p144
sg5
F0.0
sa(dp145
g3
S'7-6-3'
p146
sg5
F0.0
sa(dp147
g3
S'7-6-3-1'
p148
sg5
F0.0
sa(dp149
g3
S'7-6-4-3-1'
p150
sg5
F0.0
sa(dp151
g3
S'7-5-3'
p152
sg5
F0.0
sa(dp153
g3
S'7-4-2-1'
p154
sg5
F0.0
sa(dp155
g3
S'7-5-4-3-1'
p156
sg5
F0.0
sa(dp157
g3
S'7-6-5-3-1'
p158
sg5
F0.0
sa(dp159
g3
S'7-6-4-2-1'
p160
sg5
F0.0
sa(dp161
g3
S'7-4-3'
p162
sg5
F0.0
sa(dp163
g3
S'7-4-3-1'
p164
sg5
F0.0
sa(dp165
g3
S'7-3-1'
p166
sg5
F0.0
sa(dp167
g3
S'7-5-4-2-1'
p168
sg5
F0.0
sa(dp169
g3
S'7-3'
p170
sg5
F0.0
sa(dp171
g3
S'7-5-4-2'
p172
sg5
F0.0
sa(dp173
g3
S'7-6-5-2'
p174
sg5
F0.0
sa(dp175
g3
S'7-4-2'
p176
sg5
F0.0
sasI8
(lp177
(dp178
g3
S'8-7-5-2'
p179
sg5
F6.10997442455243
sa(dp180
g3
S'8-6-4-1'
p181
sg5
F3.7393043478260872
sa(dp182
g3
S'8-7-5-3-1'
p183
sg5
F2.163949275362319
sa(dp184
g3
S'8-5-3'
p185
sg5
F1.104995374653099
sa(dp186
g3
S'8-6-4-2'
p187
sg5
F0.9507511690379067
sa(dp188
g3
S'8-6-3-1'
p189
sg5
F0.391960623461854
sa(dp190
g3
S'8-6-5-3'
p191
sg5
F0.0
sa(dp192
g3
S'8-4'
p193
sg5
F0.0
sa(dp194
g3
S'8-7-5-3-2'
p195
sg5
F0.0
sa(dp196
g3
S'8-7-3-1'
p197
sg5
F0.0
sa(dp198
g3
S'8-7-6-4-2'
p199
sg5
F0.0
sa(dp200
g3
S'8-7-5-3'
p201
sg5
F0.0
sa(dp202
g3
S'8-6-5-4-2'
p203
sg5
F0.0
sa(dp204
g3
S'8-7-5-2-1'
p205
sg5
F0.0
sa(dp206
g3
S'8-7-5-4-2'
p207
sg5
F0.0
sa(dp208
g3
S'8-6-4-3-2'
p209
sg5
F0.0
sa(dp210
g3
S'8-6-4-3-1'
p211
sg5
F0.0
sa(dp212
g3
S'8-5-1'
p213
sg5
F0.0
sa(dp214
g3
S'8-4-2-1'
p215
sg5
F0.0
sa(dp216
g3
S'8-6-1'
p217
sg5
F0.0
sa(dp218
g3
S'8-6-5-2'
p219
sg5
F0.0
sa(dp220
g3
S'8-5-4-3'
p221
sg5
F0.0
sa(dp222
g3
S'8-5-4-2-1'
p223
sg5
F0.0
sa(dp224
g3
S'8-5-2'
p225
sg5
F0.0
sa(dp226
g3
S'8-6-4-3'
p227
sg5
F0.0
sa(dp228
g3
S'8-6-4-2-1'
p229
sg5
F0.0
sa(dp230
g3
S'8-6-2'
p231
sg5
F0.0
sa(dp232
g3
S'8-6-5-1'
p233
sg5
F0.0
sa(dp234
g3
S'8-5-4-3-1'
p235
sg5
F0.0
sa(dp236
g3
S'8-6-3-2-1'
p237
sg5
F0.0
sa(dp238
g3
S'8-5-4-2'
p239
sg5
F0.0
sa(dp240
g3
S'8-5-2-1'
p241
sg5
F0.0
sa(dp242
g3
S'8-6-4'
p243
sg5
F0.0
sa(dp244
g3
S'8-7-5-4-3-1'
p245
sg5
F0.0
sa(dp246
g3
S'8-3-1'
p247
sg5
F0.0
sa(dp248
g3
S'8-5-3-2'
p249
sg5
F0.0
sa(dp250
g3
S'8-7-4-2'
p251
sg5
F0.0
sa(dp252
g3
S'8-6-3'
p253
sg5
F0.0
sa(dp254
g3
S'8-5-4-1'
p255
sg5
F0.0
sa(dp256
g3
S'8-6-5-3-1'
p257
sg5
F0.0
sa(dp258
g3
S'8-6-3-2'
p259
sg5
F0.0
sa(dp260
g3
S'8-4-1'
p261
sg5
F0.0
sa(dp262
g3
S'8-5-3-1'
p263
sg5
F0.0
sa(dp264
g3
S'8-3'
p265
sg5
F0.0
sa(dp266
g3
S'8-7-4-1'
p267
sg5
F0.0
sa(dp268
g3
S'8-6-5-3-2'
p269
sg5
F0.0
sa(dp270
g3
S'8-7-6-3'
p271
sg5
F0.0
sa(dp272
g3
S'8-4-2'
p273
sg5
F0.0
sasI9
(lp274
(dp275
g3
S'9-6-4-1'
p276
sg5
F18.084291187739463
sa(dp277
g3
S'9-8-6-4-2'
p278
sg5
F7.750410509031198
sa(dp279
g3
S'9-7-6-4-2'
p280
sg5
F2.9064039408866993
sa(dp281
g3
S'9-6-4-2'
p282
sg5
F0.3390804597701149
sa(dp283
g3
S'9-7-5-3-1'
p284
sg5
F0.2443823133478306
sa(dp285
g3
S'9-8-5-3-1'
p286
sg5
F0.0
sa(dp287
g3
S'9-4-1'
p288
sg5
F0.0
sa(dp289
g3
S'9-7-5-3'
p290
sg5
F0.0
sa(dp291
g3
S'9-7-4-3-1'
p292
sg5
F0.0
sa(dp293
g3
S'9-6-3'
p294
sg5
F0.0
sa(dp295
g3
S'9-7-5-3-2'
p296
sg5
F0.0
sa(dp297
g3
S'9-7-5-2'
p298
sg5
F0.0
sa(dp299
g3
S'9-8-6-4-1'
p300
sg5
F0.0
sa(dp301
g3
S'9-6-5-3-1'
p302
sg5
F0.0
sa(dp303
g3
S'9-8-6-4-2-1'
p304
sg5
F0.0
sa(dp305
g3
S'9-5-2'
p306
sg5
F0.0
sa(dp307
g3
S'9-5-3-2'
p308
sg5
F0.0
sa(dp309
g3
S'9-7-3'
p310
sg5
F0.0
sa(dp311
g3
S'9-7-6-3'
p312
sg5
F0.0
sa(dp313
g3
S'9-7-4-2-1'
p314
sg5
F0.0
sa(dp315
g3
S'9-6-5-3'
p316
sg5
F0.0
sa(dp317
g3
S'9-6-5-4-2'
p318
sg5
F0.0
sa(dp319
g3
S'9-7-4-1'
p320
sg5
F0.0
sa(dp321
g3
S'9-7-5'
p322
sg5
F0.0
sa(dp323
g3
S'9-8-6-4'
p324
sg5
F0.0
sa(dp325
g3
S'9-8-6-3-1'
p326
sg5
F0.0
sa(dp327
g3
S'9-8-7-5-3-1'
p328
sg5
F0.0
sa(dp329
g3
S'9-7-5-4-1'
p330
sg5
F0.0
sa(dp331
g3
S'9-8-5-3'
p332
sg5
F0.0
sa(dp333
g3
S'9-5-3'
p334
sg5
F0.0
sa(dp335
g3
S'9-8-6-3'
p336
sg5
F0.0
sa(dp337
g3
S'9-6-4-3-1'
p338
sg5
F0.0
sa(dp339
g3
S'9-7-5-4-2'
p340
sg5
F0.0
sa(dp341
g3
S'9-7-6-5-3-1'
p342
sg5
F0.0
sa(dp343
g3
S'9-7-4-3'
p344
sg5
F0.0
sa(dp345
g3
S'9-6-5-3-2'
p346
sg5
F0.0
sa(dp347
g3
S'9-6-3-1'
p348
sg5
F0.0
sa(dp349
g3
S'9-8-7-4-1'
p350
sg5
F0.0
sa(dp351
g3
S'9-7-5-3-2-1'
p352
sg5
F0.0
sa(dp353
g3
S'9-7-5-4-3-1'
p354
sg5
F0.0
sa(dp355
g3
S'9-8-6-5-4-2'
p356
sg5
F0.0
sa(dp357
g3
S'9-8-6-5-3'
p358
sg5
F0.0
sa(dp359
g3
S'9-5-1'
p360
sg5
F0.0
sa(dp361
g3
S'9-4-2'
p362
sg5
F0.0
sa(dp363
g3
S'9-8-5-2'
p364
sg5
F0.0
sa(dp365
g3
S'9-6-4'
p366
sg5
F0.0
sa(dp367
g3
S'9-6-4-2-1'
p368
sg5
F0.0
sa(dp369
g3
S'9-7-6-4-2-1'
p370
sg5
F0.0
sa(dp371
g3
S'9-7-4-3-2'
p372
sg5
F0.0
sa(dp373
g3
S'9-7-4-2'
p374
sg5
F0.0
sa(dp375
g3
S'9-7-5-2-1'
p376
sg5
F0.0
sa(dp377
g3
S'9-7-3-1'
p378
sg5
F0.0
sa(dp379
g3
S'9-6-5-2'
p380
sg5
F0.0
sa(dp381
g3
S'9-7-5-1'
p382
sg5
F0.0
sa(dp383
g3
S'9-7-6-4-1'
p384
sg5
F0.0
sa(dp385
g3
S'9-7-6-2'
p386
sg5
F0.0
sa(dp387
g3
S'9-8-6-4-3-1'
p388
sg5
F0.0
sa(dp389
g3
S'9-8-4-2-1'
p390
sg5
F0.0
sa(dp391
g3
S'9-7-6-3-1'
p392
sg5
F0.0
sa(dp393
g3
S'9-5-3-1'
p394
sg5
F0.0
sa(dp395
g3
S'9-6-4-3'
p396
sg5
F0.0
sa(dp397
g3
S'9-6-2'
p398
sg5
F0.0
sa(dp399
g3
S'9-6-3-2'
p400
sg5
F0.0
sa(dp401
g3
S'9-7-6-4-3-1'
p402
sg5
F0.0
sa(dp403
g3
S'9-6-5-3-2-1'
p404
sg5
F0.0
sa(dp405
g3
S'9-7-4'
p406
sg5
F0.0
sa(dp407
g3
S'9-7-2'
p408
sg5
F0.0
sa(dp409
g3
S'9-7-5-4-2-1'
p410
sg5
F0.0
sa(dp411
g3
S'9-8-7-5-3'
p412
sg5
F0.0
sa(dp413
g3
S'9-6-5-4-1'
p414
sg5
F0.0
sa(dp415
g3
S'9-8-6-3-2'
p416
sg5
F0.0
sa(dp417
g3
S'9-8-6-5-3-1'
p418
sg5
F0.0
sa(dp419
g3
S'9-8-6-4-3'
p420
sg5
F0.0
sa(dp421
g3
S'9-5'
p422
sg5
F0.0
sas.