(dp0
I2
(lp1
(dp2
S'pattern'
p3
S'2'
p4
sS'oe'
p5
F1.0
sasI3
(lp6
(dp7
g3
S'3-1'
p8
sg5
F1.1754385964912279
sa(dp9
g3
S'3'
p10
sg5
F0.0
sasI4
(lp11
(dp12
g3
S'4-2'
p13
sg5
F1.2040816326530612
sa(dp14
g3
S'4-1'
p15
sg5
F0.0
sasI5
(lp16
sI6
(lp17
(dp18
g3
S'6-3-1'
p19
sg5
F4.6000000000000005
sa(dp20
g3
S'6-4-2'
p21
sg5
F0.65714285714285714
sa(dp22
g3
S'6-4-1'
p23
sg5
F0.0
sasI7
(lp24
sI8
(lp25
(dp26
g3
S'8-6-3-1'
p27
sg5
F5.5
sa(dp28
g3
S'8-6-4-2'
p29
sg5
F0.75
sa(dp30
g3
S'8-5-3-1'
p31
sg5
F0.0
sa(dp32
g3
S'8-6-4-1'
p33
sg5
F0.0
sasI9
(lp34
s.