(dp0
(S'the'
p1
S'cat'
p2
tp3
ccopy_reg
_reconstructor
p4
(cpyparse
PhraseType
p5
c__builtin__
object
p6
Ntp7
Rp8
(dp9
S'tokens'
p10
(lp11
g4
(cpyparse
PhraseToken
p12
g6
Ntp13
Rp14
(dp15
S'word_num'
p16
(I2
I3
tp17
sS'paren_sentlen'
p18
(I35
I35
tp19
sS'paren_num'
p20
(I6
I8
tp21
sS'word_sentlen'
p22
(I10
I10
tp23
sbasS'freq'
p24
NsS'words'
p25
g3
sbs(S'the'
p26
S'cheese'
p27
tp28
g4
(g5
g6
Ntp29
Rp30
(dp31
g10
(lp32
g4
(g12
g6
Ntp33
Rp34
(dp35
g16
(I10
I11
tp36
sg18
(I35
I35
tp37
sg20
(I33
I35
tp38
sg22
(I10
I10
tp39
sbasg24
Nsg25
g28
sbs(S'the'
p40
S'rat'
p41
tp42
g4
(g5
g6
Ntp43
Rp44
(dp45
g10
(lp46
g4
(g12
g6
Ntp47
Rp48
(dp49
g16
(I6
I7
tp50
sg18
(I35
I35
tp51
sg20
(I20
I22
tp52
sg22
(I10
I10
tp53
sbasg24
Nsg25
g42
sbs.